---
triple:          'arm64-apple-darwin'
binary-path:     '/Users/delek/Dropbox/_mbp-2020-dev/vscodeProjects/CPP_MASTER/aoc-24-d25-cpp/main'
relocations:
  - { offset: 0x14251, size: 0x8, addend: 0x0, symName: __ZNSt3__124__put_character_sequenceB8ne180100IcNS_11char_traitsIcEEEERNS_13basic_ostreamIT_T0_EES7_PKS4_m, symObjAddr: 0xD8D8, symBinAddr: 0x10000E2F8, symSize: 0x1EC }
  - { offset: 0x15D3B, size: 0x8, addend: 0x0, symName: __ZNSt3__17getlineB8ne180100IcNS_11char_traitsIcEENS_9allocatorIcEEEERNS_13basic_istreamIT_T0_EES9_RNS_12basic_stringIS6_S7_T1_EE, symObjAddr: 0x710, symBinAddr: 0x100001130, symSize: 0x5C }
  - { offset: 0x15E7D, size: 0x8, addend: 0x0, symName: __ZNSt3__1neB8ne180100IPKNS_6vectorINS_12basic_stringIcNS_11char_traitsIcEENS_9allocatorIcEEEENS5_IS7_EEEEEEbRKNS_11__wrap_iterIT_EESG_, symObjAddr: 0xEBC, symBinAddr: 0x1000018DC, symSize: 0x34 }
  - { offset: 0x15EC0, size: 0x8, addend: 0x0, symName: __ZNSt3__13getB8ne180100ILm0ENS_6vectorINS1_INS_12basic_stringIcNS_11char_traitsIcEENS_9allocatorIcEEEENS5_IS7_EEEENS5_IS9_EEEESB_EEONS_13tuple_elementIXT_ENS_4pairIT0_T1_EEE4typeEOSG_, symObjAddr: 0x1598, symBinAddr: 0x100001FB8, symSize: 0x24 }
  - { offset: 0x15F0A, size: 0x8, addend: 0x0, symName: __ZNSt3__13getB8ne180100ILm1ENS_6vectorINS1_INS_12basic_stringIcNS_11char_traitsIcEENS_9allocatorIcEEEENS5_IS7_EEEENS5_IS9_EEEESB_EEONS_13tuple_elementIXT_ENS_4pairIT0_T1_EEE4typeEOSG_, symObjAddr: 0x15BC, symBinAddr: 0x100001FDC, symSize: 0x24 }
  - { offset: 0x16C8E, size: 0x8, addend: 0x0, symName: __ZNSt3__1neB8ne180100IPNS_6vectorIiNS_9allocatorIiEEEEEEbRKNS_11__wrap_iterIT_EESA_, symObjAddr: 0x166C, symBinAddr: 0x10000208C, symSize: 0x34 }
  - { offset: 0x16CD1, size: 0x8, addend: 0x0, symName: __ZNSt3__14endlB8ne180100IcNS_11char_traitsIcEEEERNS_13basic_ostreamIT_T0_EES7_, symObjAddr: 0x1804, symBinAddr: 0x100002224, symSize: 0x58 }
  - { offset: 0x16D11, size: 0x8, addend: 0x0, symName: __ZNSt3__1lsB8ne180100INS_11char_traitsIcEEEERNS_13basic_ostreamIcT_EES6_c, symObjAddr: 0x18B4, symBinAddr: 0x1000022D4, symSize: 0x34 }
  - { offset: 0x16D57, size: 0x8, addend: 0x0, symName: __ZNSt3__1lsB8ne180100INS_11char_traitsIcEEEERNS_13basic_ostreamIcT_EES6_PKc, symObjAddr: 0x18E8, symBinAddr: 0x100002308, symSize: 0x48 }
  - { offset: 0x16D9D, size: 0x8, addend: 0x0, symName: __ZNSt3__122__make_exception_guardB8ne180100INS_6vectorINS1_INS_12basic_stringIcNS_11char_traitsIcEENS_9allocatorIcEEEENS5_IS7_EEEENS5_IS9_EEE16__destroy_vectorEEENS_28__exception_guard_exceptionsIT_EESE_, symObjAddr: 0x1CAC, symBinAddr: 0x1000026CC, symSize: 0x40 }
  - { offset: 0x16DD2, size: 0x8, addend: 0x0, symName: __ZNSt3__119__allocate_at_leastB8ne180100INS_9allocatorINS_6vectorINS_12basic_stringIcNS_11char_traitsIcEENS1_IcEEEENS1_IS7_EEEEEEEENS_19__allocation_resultINS_16allocator_traitsIT_E7pointerEEERSD_m, symObjAddr: 0x1F9C, symBinAddr: 0x1000029BC, symSize: 0x40 }
  - { offset: 0x16E15, size: 0x8, addend: 0x0, symName: __ZNSt3__13minB8ne180100ImEERKT_S3_S3_, symObjAddr: 0x2040, symBinAddr: 0x100002A60, symSize: 0x2C }
  - { offset: 0x17042, size: 0x8, addend: 0x0, symName: __ZNSt3__13minB8ne180100ImNS_6__lessIvvEEEERKT_S5_S5_T0_, symObjAddr: 0x20A4, symBinAddr: 0x100002AC4, symSize: 0x54 }
  - { offset: 0x17112, size: 0x8, addend: 0x0, symName: __ZNSt3__120__throw_length_errorB8ne180100EPKc, symObjAddr: 0x214C, symBinAddr: 0x100002B6C, symSize: 0x64 }
  - { offset: 0x1713A, size: 0x8, addend: 0x0, symName: __ZNSt3__117__libcpp_allocateB8ne180100Emm, symObjAddr: 0x22B8, symBinAddr: 0x100002CD8, symSize: 0x60 }
  - { offset: 0x17194, size: 0x8, addend: 0x0, symName: __ZNSt3__124__is_overaligned_for_newB8ne180100Em, symObjAddr: 0x2318, symBinAddr: 0x100002D38, symSize: 0x20 }
  - { offset: 0x171C2, size: 0x8, addend: 0x0, symName: __ZNSt3__121__libcpp_operator_newB8ne180100IJmSt11align_val_tEEEPvDpT_, symObjAddr: 0x2338, symBinAddr: 0x100002D58, symSize: 0x2C }
  - { offset: 0x1720F, size: 0x8, addend: 0x0, symName: __ZNSt3__121__libcpp_operator_newB8ne180100IJmEEEPvDpT_, symObjAddr: 0x2364, symBinAddr: 0x100002D84, symSize: 0x24 }
  - { offset: 0x17248, size: 0x8, addend: 0x0, symName: __ZNSt3__130__uninitialized_allocator_copyB8ne180100INS_9allocatorINS_6vectorINS_12basic_stringIcNS_11char_traitsIcEENS1_IcEEEENS1_IS7_EEEEEEPS9_SB_SB_EET2_RT_T0_T1_SC_, symObjAddr: 0x2434, symBinAddr: 0x100002E54, symSize: 0x80 }
  - { offset: 0x172E5, size: 0x8, addend: 0x0, symName: __ZNSt3__114__unwrap_rangeB8ne180100IPNS_6vectorINS_12basic_stringIcNS_11char_traitsIcEENS_9allocatorIcEEEENS5_IS7_EEEESA_EENS_4pairIT0_SC_EET_SE_, symObjAddr: 0x252C, symBinAddr: 0x100002F4C, symSize: 0x60 }
  - { offset: 0x17331, size: 0x8, addend: 0x0, symName: __ZNSt3__135__uninitialized_allocator_copy_implB8ne180100INS_9allocatorINS_6vectorINS_12basic_stringIcNS_11char_traitsIcEENS1_IcEEEENS1_IS7_EEEEEEPS9_SB_SB_EET2_RT_T0_T1_SC_, symObjAddr: 0x258C, symBinAddr: 0x100002FAC, symSize: 0xF4 }
  - { offset: 0x173CF, size: 0x8, addend: 0x0, symName: __ZNSt3__113__unwrap_iterB8ne180100IPNS_6vectorINS_12basic_stringIcNS_11char_traitsIcEENS_9allocatorIcEEEENS5_IS7_EEEENS_18__unwrap_iter_implISA_Lb1EEELi0EEEDTclsrT0_8__unwrapclsr3stdE7declvalIT_EEEESE_, symObjAddr: 0x2680, symBinAddr: 0x1000030A0, symSize: 0x24 }
  - { offset: 0x17413, size: 0x8, addend: 0x0, symName: __ZNSt3__113__rewrap_iterB8ne180100IPNS_6vectorINS_12basic_stringIcNS_11char_traitsIcEENS_9allocatorIcEEEENS5_IS7_EEEESA_NS_18__unwrap_iter_implISA_Lb1EEEEET_SD_T0_, symObjAddr: 0x26A4, symBinAddr: 0x1000030C4, symSize: 0x3C }
  - { offset: 0x17468, size: 0x8, addend: 0x0, symName: __ZNSt3__19make_pairB8ne180100IPNS_6vectorINS_12basic_stringIcNS_11char_traitsIcEENS_9allocatorIcEEEENS5_IS7_EEEESA_EENS_4pairINS_18__unwrap_ref_decayIT_E4typeENSC_IT0_E4typeEEEOSD_OSG_, symObjAddr: 0x26E0, symBinAddr: 0x100003100, symSize: 0x38 }
  - { offset: 0x1758B, size: 0x8, addend: 0x0, symName: __ZNSt3__122__make_exception_guardB8ne180100INS_29_AllocatorDestroyRangeReverseINS_9allocatorINS_6vectorINS_12basic_stringIcNS_11char_traitsIcEENS2_IcEEEENS2_IS8_EEEEEEPSA_EEEENS_28__exception_guard_exceptionsIT_EESF_, symObjAddr: 0x2788, symBinAddr: 0x1000031A8, symSize: 0x4C }
  - { offset: 0x175C1, size: 0x8, addend: 0x0, symName: __ZNSt3__112__to_addressB8ne180100INS_6vectorINS_12basic_stringIcNS_11char_traitsIcEENS_9allocatorIcEEEENS5_IS7_EEEEEEPT_SB_, symObjAddr: 0x284C, symBinAddr: 0x10000326C, symSize: 0x14 }
  - { offset: 0x175F6, size: 0x8, addend: 0x0, symName: __ZNSt3__119__allocator_destroyB8ne180100INS_9allocatorINS_6vectorINS_12basic_stringIcNS_11char_traitsIcEENS1_IcEEEENS1_IS7_EEEEEENS_16reverse_iteratorIPS9_EESD_EEvRT_T0_T1_, symObjAddr: 0x2A2C, symBinAddr: 0x10000344C, symSize: 0x70 }
  - { offset: 0x17659, size: 0x8, addend: 0x0, symName: __ZNSt3__1neB8ne180100IPNS_6vectorINS_12basic_stringIcNS_11char_traitsIcEENS_9allocatorIcEEEENS5_IS7_EEEESA_EEbRKNS_16reverse_iteratorIT_EERKNSB_IT0_EE, symObjAddr: 0x2AD0, symBinAddr: 0x1000034F0, symSize: 0x48 }
  - { offset: 0x176A5, size: 0x8, addend: 0x0, symName: __ZNSt3__112__to_addressB8ne180100INS_16reverse_iteratorIPNS_6vectorINS_12basic_stringIcNS_11char_traitsIcEENS_9allocatorIcEEEENS6_IS8_EEEEEEvEEu7__decayIDTclsr19__to_address_helperIT_EE6__callclsr3stdE7declvalIRKSD_EEEEESF_, symObjAddr: 0x2B44, symBinAddr: 0x100003564, symSize: 0x24 }
  - { offset: 0x17757, size: 0x8, addend: 0x0, symName: __ZNSt3__119__libcpp_deallocateB8ne180100EPvmm, symObjAddr: 0x2F6C, symBinAddr: 0x10000398C, symSize: 0x60 }
  - { offset: 0x177BC, size: 0x8, addend: 0x0, symName: __ZNSt3__127__do_deallocate_handle_sizeB8ne180100IJSt11align_val_tEEEvPvmDpT_, symObjAddr: 0x2FCC, symBinAddr: 0x1000039EC, symSize: 0x30 }
  - { offset: 0x1780F, size: 0x8, addend: 0x0, symName: __ZNSt3__127__do_deallocate_handle_sizeB8ne180100IJEEEvPvmDpT_, symObjAddr: 0x2FFC, symBinAddr: 0x100003A1C, symSize: 0x28 }
  - { offset: 0x1784D, size: 0x8, addend: 0x0, symName: __ZNSt3__124__libcpp_operator_deleteB8ne180100IJPvSt11align_val_tEEEvDpT_, symObjAddr: 0x3024, symBinAddr: 0x100003A44, symSize: 0x2C }
  - { offset: 0x17896, size: 0x8, addend: 0x0, symName: __ZNSt3__124__libcpp_operator_deleteB8ne180100IJPvEEEvDpT_, symObjAddr: 0x3050, symBinAddr: 0x100003A70, symSize: 0x24 }
  - { offset: 0x178CB, size: 0x8, addend: 0x0, symName: __ZNSt3__1eqB8ne180100IPKNS_6vectorINS_12basic_stringIcNS_11char_traitsIcEENS_9allocatorIcEEEENS5_IS7_EEEEEEbRKNS_11__wrap_iterIT_EESG_, symObjAddr: 0x3160, symBinAddr: 0x100003B80, symSize: 0x48 }
  - { offset: 0x17988, size: 0x8, addend: 0x0, symName: __ZNSt3__1eqB8ne180100IPNS_6vectorIiNS_9allocatorIiEEEEEEbRKNS_11__wrap_iterIT_EESA_, symObjAddr: 0x31EC, symBinAddr: 0x100003C0C, symSize: 0x48 }
  - { offset: 0x179CB, size: 0x8, addend: 0x0, symName: __ZNSt3__122__make_exception_guardB8ne180100INS_6vectorIiNS_9allocatorIiEEE16__destroy_vectorEEENS_28__exception_guard_exceptionsIT_EES7_, symObjAddr: 0x3588, symBinAddr: 0x100003FA8, symSize: 0x40 }
  - { offset: 0x17A00, size: 0x8, addend: 0x0, symName: __ZNSt3__119__allocate_at_leastB8ne180100INS_9allocatorIiEEEENS_19__allocation_resultINS_16allocator_traitsIT_E7pointerEEERS5_m, symObjAddr: 0x3870, symBinAddr: 0x100004290, symSize: 0x40 }
  - { offset: 0x17A43, size: 0x8, addend: 0x0, symName: __ZNSt3__130__uninitialized_allocator_copyB8ne180100INS_9allocatorIiEEPiS3_S3_EET2_RT_T0_T1_S4_, symObjAddr: 0x3A50, symBinAddr: 0x100004470, symSize: 0x80 }
  - { offset: 0x17AE0, size: 0x8, addend: 0x0, symName: __ZNSt3__114__unwrap_rangeB8ne180100IPiS1_EENS_4pairIT0_S3_EET_S5_, symObjAddr: 0x3B40, symBinAddr: 0x100004560, symSize: 0x60 }
  - { offset: 0x17B2C, size: 0x8, addend: 0x0, symName: __ZNSt3__135__uninitialized_allocator_copy_implB8ne180100INS_9allocatorIiEEiiiLPv0EEEPT2_RT_PT0_S9_S5_, symObjAddr: 0x3BA0, symBinAddr: 0x1000045C0, symSize: 0x38 }
  - { offset: 0x17BAD, size: 0x8, addend: 0x0, symName: __ZNSt3__113__unwrap_iterB8ne180100IPiNS_18__unwrap_iter_implIS1_Lb1EEELi0EEEDTclsrT0_8__unwrapclsr3stdE7declvalIT_EEEES5_, symObjAddr: 0x3BD8, symBinAddr: 0x1000045F8, symSize: 0x24 }
  - { offset: 0x17BF1, size: 0x8, addend: 0x0, symName: __ZNSt3__113__rewrap_iterB8ne180100IPiS1_NS_18__unwrap_iter_implIS1_Lb1EEEEET_S4_T0_, symObjAddr: 0x3BFC, symBinAddr: 0x10000461C, symSize: 0x3C }
  - { offset: 0x17C46, size: 0x8, addend: 0x0, symName: __ZNSt3__19make_pairB8ne180100IPiS1_EENS_4pairINS_18__unwrap_ref_decayIT_E4typeENS3_IT0_E4typeEEEOS4_OS7_, symObjAddr: 0x3C38, symBinAddr: 0x100004658, symSize: 0x38 }
  - { offset: 0x17D98, size: 0x8, addend: 0x0, symName: __ZNSt3__14copyB8ne180100IPiS1_EET0_T_S3_S2_, symObjAddr: 0x3CE0, symBinAddr: 0x100004700, symSize: 0x40 }
  - { offset: 0x17DF2, size: 0x8, addend: 0x0, symName: __ZNSt3__16__copyB8ne180100INS_17_ClassicAlgPolicyEPiS2_S2_EENS_4pairIT0_T2_EES4_T1_S5_, symObjAddr: 0x3D20, symBinAddr: 0x100004740, symSize: 0x44 }
  - { offset: 0x17E5E, size: 0x8, addend: 0x0, symName: __ZNSt3__123__dispatch_copy_or_moveB8ne180100INS_17_ClassicAlgPolicyENS_11__copy_loopIS1_EENS_14__copy_trivialEPiS5_S5_EENS_4pairIT2_T4_EES7_T3_S8_, symObjAddr: 0x3D64, symBinAddr: 0x100004784, symSize: 0x44 }
  - { offset: 0x17EDC, size: 0x8, addend: 0x0, symName: __ZNSt3__121__unwrap_and_dispatchB8ne180100INS_10__overloadINS_11__copy_loopINS_17_ClassicAlgPolicyEEENS_14__copy_trivialEEEPiS7_S7_Li0EEENS_4pairIT0_T2_EES9_T1_SA_, symObjAddr: 0x3DA8, symBinAddr: 0x1000047C8, symSize: 0xB4 }
  - { offset: 0x17FB0, size: 0x8, addend: 0x0, symName: __ZNSt3__114__rewrap_rangeB8ne180100IPiS1_EET_S2_T0_, symObjAddr: 0x3EA4, symBinAddr: 0x1000048C4, symSize: 0x2C }
  - { offset: 0x17FFC, size: 0x8, addend: 0x0, symName: __ZNSt3__119__copy_trivial_implB8ne180100IiiEENS_4pairIPT_PT0_EES3_S3_S5_, symObjAddr: 0x3ED0, symBinAddr: 0x1000048F0, symSize: 0x80 }
  - { offset: 0x18064, size: 0x8, addend: 0x0, symName: __ZNSt3__119__constexpr_memmoveB8ne180100IiiLi0EEEPT_S2_PT0_NS_15__element_countE, symObjAddr: 0x3F50, symBinAddr: 0x100004970, symSize: 0x64 }
  - { offset: 0x180D2, size: 0x8, addend: 0x0, symName: __ZNSt3__19make_pairB8ne180100IRPiS1_EENS_4pairINS_18__unwrap_ref_decayIT_E4typeENS4_IT0_E4typeEEEOS5_OS8_, symObjAddr: 0x3FB4, symBinAddr: 0x1000049D4, symSize: 0x38 }
  - { offset: 0x18174, size: 0x8, addend: 0x0, symName: __ZNSt3__112__to_addressB8ne180100IiEEPT_S2_, symObjAddr: 0x4080, symBinAddr: 0x100004AA0, symSize: 0x14 }
  - { offset: 0x181A9, size: 0x8, addend: 0x0, symName: __ZNSt3__112__to_addressB8ne180100IKcEEPT_S3_, symObjAddr: 0x4798, symBinAddr: 0x1000051B8, symSize: 0x14 }
  - { offset: 0x18211, size: 0x8, addend: 0x0, symName: __ZNSt3__112__to_addressB8ne180100INS_12basic_stringIcNS_11char_traitsIcEENS_9allocatorIcEEEEEEPT_S8_, symObjAddr: 0x4EA4, symBinAddr: 0x1000058C4, symSize: 0x14 }
  - { offset: 0x18246, size: 0x8, addend: 0x0, symName: __ZNSt3__17getlineB8ne180100IcNS_11char_traitsIcEENS_9allocatorIcEEEERNS_13basic_istreamIT_T0_EES9_RNS_12basic_stringIS6_S7_T1_EES6_, symObjAddr: 0x4FBC, symBinAddr: 0x1000059DC, symSize: 0x238 }
  - { offset: 0x18523, size: 0x8, addend: 0x0, symName: __ZNSt3__19use_facetB8ne180100INS_5ctypeIcEEEERKT_RKNS_6localeE, symObjAddr: 0x57D8, symBinAddr: 0x1000061F8, symSize: 0x2C }
  - { offset: 0x189F0, size: 0x8, addend: 0x0, symName: __ZNSt3__18distanceB8ne180100INS_11__wrap_iterIPNS_12basic_stringIcNS_11char_traitsIcEENS_9allocatorIcEEEEEEEENS_15iterator_traitsIT_E15difference_typeESB_SB_, symObjAddr: 0x5A18, symBinAddr: 0x100006438, symSize: 0x3C }
  - { offset: 0x18A33, size: 0x8, addend: 0x0, symName: __ZNSt3__110__distanceB8ne180100INS_11__wrap_iterIPNS_12basic_stringIcNS_11char_traitsIcEENS_9allocatorIcEEEEEEEENS_15iterator_traitsIT_E15difference_typeESB_SB_NS_26random_access_iterator_tagE, symObjAddr: 0x5B1C, symBinAddr: 0x10000653C, symSize: 0x30 }
  - { offset: 0x18A80, size: 0x8, addend: 0x0, symName: __ZNSt3__1miB8ne180100IPNS_12basic_stringIcNS_11char_traitsIcEENS_9allocatorIcEEEES7_EEDTmicldtfp_4baseEcldtfp0_4baseEERKNS_11__wrap_iterIT_EERKNS9_IT0_EE, symObjAddr: 0x5B4C, symBinAddr: 0x10000656C, symSize: 0x48 }
  - { offset: 0x18ACC, size: 0x8, addend: 0x0, symName: __ZNSt3__122__make_exception_guardB8ne180100INS_6vectorINS_12basic_stringIcNS_11char_traitsIcEENS_9allocatorIcEEEENS5_IS7_EEE16__destroy_vectorEEENS_28__exception_guard_exceptionsIT_EESC_, symObjAddr: 0x5BAC, symBinAddr: 0x1000065CC, symSize: 0x40 }
  - { offset: 0x18B01, size: 0x8, addend: 0x0, symName: __ZNSt3__119__allocate_at_leastB8ne180100INS_9allocatorINS_12basic_stringIcNS_11char_traitsIcEENS1_IcEEEEEEEENS_19__allocation_resultINS_16allocator_traitsIT_E7pointerEEERSA_m, symObjAddr: 0x5E58, symBinAddr: 0x100006878, symSize: 0x40 }
  - { offset: 0x18B44, size: 0x8, addend: 0x0, symName: __ZNSt3__130__uninitialized_allocator_copyB8ne180100INS_9allocatorINS_12basic_stringIcNS_11char_traitsIcEENS1_IcEEEEEENS_11__wrap_iterIPS6_EESA_S9_EET2_RT_T0_T1_SB_, symObjAddr: 0x6040, symBinAddr: 0x100006A60, symSize: 0x90 }
  - { offset: 0x18BE1, size: 0x8, addend: 0x0, symName: __ZNSt3__114__unwrap_rangeB8ne180100INS_11__wrap_iterIPNS_12basic_stringIcNS_11char_traitsIcEENS_9allocatorIcEEEEEES8_EENS_4pairIT0_SB_EET_SD_, symObjAddr: 0x6148, symBinAddr: 0x100006B68, symSize: 0x70 }
  - { offset: 0x18C2D, size: 0x8, addend: 0x0, symName: __ZNSt3__135__uninitialized_allocator_copy_implB8ne180100INS_9allocatorINS_12basic_stringIcNS_11char_traitsIcEENS1_IcEEEEEEPS6_S8_S8_EET2_RT_T0_T1_S9_, symObjAddr: 0x61B8, symBinAddr: 0x100006BD8, symSize: 0xF4 }
  - { offset: 0x18CCB, size: 0x8, addend: 0x0, symName: __ZNSt3__113__unwrap_iterB8ne180100IPNS_12basic_stringIcNS_11char_traitsIcEENS_9allocatorIcEEEENS_18__unwrap_iter_implIS7_Lb1EEELi0EEEDTclsrT0_8__unwrapclsr3stdE7declvalIT_EEEESB_, symObjAddr: 0x62AC, symBinAddr: 0x100006CCC, symSize: 0x24 }
  - { offset: 0x18D0F, size: 0x8, addend: 0x0, symName: __ZNSt3__113__rewrap_iterB8ne180100IPNS_12basic_stringIcNS_11char_traitsIcEENS_9allocatorIcEEEES7_NS_18__unwrap_iter_implIS7_Lb1EEEEET_SA_T0_, symObjAddr: 0x62D0, symBinAddr: 0x100006CF0, symSize: 0x3C }
  - { offset: 0x18D64, size: 0x8, addend: 0x0, symName: __ZNSt3__19make_pairB8ne180100IPNS_12basic_stringIcNS_11char_traitsIcEENS_9allocatorIcEEEES7_EENS_4pairINS_18__unwrap_ref_decayIT_E4typeENS9_IT0_E4typeEEEOSA_OSD_, symObjAddr: 0x630C, symBinAddr: 0x100006D2C, symSize: 0x38 }
  - { offset: 0x18DB3, size: 0x8, addend: 0x0, symName: __ZNSt3__113__unwrap_iterB8ne180100INS_11__wrap_iterIPNS_12basic_stringIcNS_11char_traitsIcEENS_9allocatorIcEEEEEENS_18__unwrap_iter_implIS9_Lb1EEELi0EEEDTclsrT0_8__unwrapclsr3stdE7declvalIT_EEEESD_, symObjAddr: 0x6344, symBinAddr: 0x100006D64, symSize: 0x2C }
  - { offset: 0x18F1E, size: 0x8, addend: 0x0, symName: __ZNSt3__112__to_addressB8ne180100INS_11__wrap_iterIPNS_12basic_stringIcNS_11char_traitsIcEENS_9allocatorIcEEEEEEvEEu7__decayIDTclsr19__to_address_helperIT_EE6__callclsr3stdE7declvalIRKSA_EEEEESC_, symObjAddr: 0x6408, symBinAddr: 0x100006E28, symSize: 0x24 }
  - { offset: 0x18FF9, size: 0x8, addend: 0x0, symName: __ZNSt3__122__make_exception_guardB8ne180100INS_29_AllocatorDestroyRangeReverseINS_9allocatorINS_12basic_stringIcNS_11char_traitsIcEENS2_IcEEEEEEPS7_EEEENS_28__exception_guard_exceptionsIT_EESC_, symObjAddr: 0x6488, symBinAddr: 0x100006EA8, symSize: 0x4C }
  - { offset: 0x1902F, size: 0x8, addend: 0x0, symName: __ZNSt3__119__allocator_destroyB8ne180100INS_9allocatorINS_12basic_stringIcNS_11char_traitsIcEENS1_IcEEEEEENS_16reverse_iteratorIPS6_EESA_EEvRT_T0_T1_, symObjAddr: 0x6718, symBinAddr: 0x100007138, symSize: 0x70 }
  - { offset: 0x19092, size: 0x8, addend: 0x0, symName: __ZNSt3__1neB8ne180100IPNS_12basic_stringIcNS_11char_traitsIcEENS_9allocatorIcEEEES7_EEbRKNS_16reverse_iteratorIT_EERKNS8_IT0_EE, symObjAddr: 0x67BC, symBinAddr: 0x1000071DC, symSize: 0x48 }
  - { offset: 0x190DE, size: 0x8, addend: 0x0, symName: __ZNSt3__112__to_addressB8ne180100INS_16reverse_iteratorIPNS_12basic_stringIcNS_11char_traitsIcEENS_9allocatorIcEEEEEEvEEu7__decayIDTclsr19__to_address_helperIT_EE6__callclsr3stdE7declvalIRKSA_EEEEESC_, symObjAddr: 0x6804, symBinAddr: 0x100007224, symSize: 0x24 }
  - { offset: 0x19190, size: 0x8, addend: 0x0, symName: __ZNSt3__13maxB8ne180100ImEERKT_S3_S3_, symObjAddr: 0x6F90, symBinAddr: 0x1000079B0, symSize: 0x2C }
  - { offset: 0x191D3, size: 0x8, addend: 0x0, symName: __ZNSt3__13maxB8ne180100ImNS_6__lessIvvEEEERKT_S5_S5_T0_, symObjAddr: 0x6FBC, symBinAddr: 0x1000079DC, symSize: 0x54 }
  - { offset: 0x1922D, size: 0x8, addend: 0x0, symName: __ZNSt3__142__uninitialized_allocator_move_if_noexceptB8ne180100INS_9allocatorINS_6vectorINS_12basic_stringIcNS_11char_traitsIcEENS1_IcEEEENS1_IS7_EEEEEENS_16reverse_iteratorIPS9_EESD_SD_EET2_RT_T0_T1_SE_, symObjAddr: 0x7248, symBinAddr: 0x100007C68, symSize: 0x11C }
  - { offset: 0x192CD, size: 0x8, addend: 0x0, symName: __ZNSt3__14swapB8ne180100IPNS_6vectorINS_12basic_stringIcNS_11char_traitsIcEENS_9allocatorIcEEEENS5_IS7_EEEEEENS_9enable_ifIXaasr21is_move_constructibleIT_EE5valuesr18is_move_assignableISC_EE5valueEvE4typeERSC_SF_, symObjAddr: 0x7364, symBinAddr: 0x100007D84, symSize: 0x3C }
  - { offset: 0x1931E, size: 0x8, addend: 0x0, symName: __ZNSt3__122__make_exception_guardB8ne180100INS_29_AllocatorDestroyRangeReverseINS_9allocatorINS_6vectorINS_12basic_stringIcNS_11char_traitsIcEENS2_IcEEEENS2_IS8_EEEEEENS_16reverse_iteratorIPSA_EEEEEENS_28__exception_guard_exceptionsIT_EESH_, symObjAddr: 0x73A0, symBinAddr: 0x100007DC0, symSize: 0x4C }
  - { offset: 0x19354, size: 0x8, addend: 0x0, symName: __ZNSt3__119__allocator_destroyB8ne180100INS_9allocatorINS_6vectorINS_12basic_stringIcNS_11char_traitsIcEENS1_IcEEEENS1_IS7_EEEEEENS_16reverse_iteratorINSB_IPS9_EEEESE_EEvRT_T0_T1_, symObjAddr: 0x7618, symBinAddr: 0x100008038, symSize: 0x70 }
  - { offset: 0x193B9, size: 0x8, addend: 0x0, symName: __ZNSt3__1neB8ne180100INS_16reverse_iteratorIPNS_6vectorINS_12basic_stringIcNS_11char_traitsIcEENS_9allocatorIcEEEENS6_IS8_EEEEEESC_EEbRKNS1_IT_EERKNS1_IT0_EE, symObjAddr: 0x76C4, symBinAddr: 0x1000080E4, symSize: 0x60 }
  - { offset: 0x19405, size: 0x8, addend: 0x0, symName: __ZNSt3__112__to_addressB8ne180100INS_16reverse_iteratorINS1_IPNS_6vectorINS_12basic_stringIcNS_11char_traitsIcEENS_9allocatorIcEEEENS6_IS8_EEEEEEEEvEEu7__decayIDTclsr19__to_address_helperIT_EE6__callclsr3stdE7declvalIRKSE_EEEEESG_, symObjAddr: 0x7724, symBinAddr: 0x100008144, symSize: 0x24 }
  - { offset: 0x19464, size: 0x8, addend: 0x0, symName: __ZNSt3__142__uninitialized_allocator_move_if_noexceptB8ne180100INS_9allocatorINS_12basic_stringIcNS_11char_traitsIcEENS1_IcEEEEEENS_16reverse_iteratorIPS6_EESA_SA_EET2_RT_T0_T1_SB_, symObjAddr: 0x80C0, symBinAddr: 0x100008AE0, symSize: 0x11C }
  - { offset: 0x19504, size: 0x8, addend: 0x0, symName: __ZNSt3__14swapB8ne180100IPNS_12basic_stringIcNS_11char_traitsIcEENS_9allocatorIcEEEEEENS_9enable_ifIXaasr21is_move_constructibleIT_EE5valuesr18is_move_assignableIS9_EE5valueEvE4typeERS9_SC_, symObjAddr: 0x81DC, symBinAddr: 0x100008BFC, symSize: 0x3C }
  - { offset: 0x19555, size: 0x8, addend: 0x0, symName: __ZNSt3__122__make_exception_guardB8ne180100INS_29_AllocatorDestroyRangeReverseINS_9allocatorINS_12basic_stringIcNS_11char_traitsIcEENS2_IcEEEEEENS_16reverse_iteratorIPS7_EEEEEENS_28__exception_guard_exceptionsIT_EESE_, symObjAddr: 0x8218, symBinAddr: 0x100008C38, symSize: 0x4C }
  - { offset: 0x1958B, size: 0x8, addend: 0x0, symName: __ZNSt3__119__allocator_destroyB8ne180100INS_9allocatorINS_12basic_stringIcNS_11char_traitsIcEENS1_IcEEEEEENS_16reverse_iteratorINS8_IPS6_EEEESB_EEvRT_T0_T1_, symObjAddr: 0x8630, symBinAddr: 0x100009050, symSize: 0x70 }
  - { offset: 0x195F0, size: 0x8, addend: 0x0, symName: __ZNSt3__1neB8ne180100INS_16reverse_iteratorIPNS_12basic_stringIcNS_11char_traitsIcEENS_9allocatorIcEEEEEES9_EEbRKNS1_IT_EERKNS1_IT0_EE, symObjAddr: 0x86DC, symBinAddr: 0x1000090FC, symSize: 0x60 }
  - { offset: 0x1963C, size: 0x8, addend: 0x0, symName: __ZNSt3__112__to_addressB8ne180100INS_16reverse_iteratorINS1_IPNS_12basic_stringIcNS_11char_traitsIcEENS_9allocatorIcEEEEEEEEvEEu7__decayIDTclsr19__to_address_helperIT_EE6__callclsr3stdE7declvalIRKSB_EEEEESD_, symObjAddr: 0x873C, symBinAddr: 0x10000915C, symSize: 0x24 }
  - { offset: 0x1969B, size: 0x8, addend: 0x0, symName: __ZNSt3__112__to_addressB8ne180100INS_6vectorIiNS_9allocatorIiEEEEEEPT_S6_, symObjAddr: 0x8E80, symBinAddr: 0x1000098A0, symSize: 0x14 }
  - { offset: 0x196D0, size: 0x8, addend: 0x0, symName: __ZNSt3__130__uninitialized_allocator_copyB8ne180100INS_9allocatorINS_12basic_stringIcNS_11char_traitsIcEENS1_IcEEEEEEPS6_S8_S8_EET2_RT_T0_T1_S9_, symObjAddr: 0x9204, symBinAddr: 0x100009C24, symSize: 0x80 }
  - { offset: 0x1976D, size: 0x8, addend: 0x0, symName: __ZNSt3__114__unwrap_rangeB8ne180100IPNS_12basic_stringIcNS_11char_traitsIcEENS_9allocatorIcEEEES7_EENS_4pairIT0_S9_EET_SB_, symObjAddr: 0x9284, symBinAddr: 0x100009CA4, symSize: 0x60 }
  - { offset: 0x197B9, size: 0x8, addend: 0x0, symName: __ZNSt3__142__uninitialized_allocator_move_if_noexceptB8ne180100INS_9allocatorIiEENS_16reverse_iteratorIPiEES5_ivEET1_RT_T0_S9_S6_, symObjAddr: 0x9AE8, symBinAddr: 0x10000A508, symSize: 0x78 }
  - { offset: 0x19836, size: 0x8, addend: 0x0, symName: __ZNSt3__14swapB8ne180100IPiEENS_9enable_ifIXaasr21is_move_constructibleIT_EE5valuesr18is_move_assignableIS3_EE5valueEvE4typeERS3_S6_, symObjAddr: 0x9BAC, symBinAddr: 0x10000A5CC, symSize: 0x3C }
  - { offset: 0x19887, size: 0x8, addend: 0x0, symName: __ZNSt3__14moveB8ne180100INS_16reverse_iteratorIPiEES3_EET0_T_S5_S4_, symObjAddr: 0x9BE8, symBinAddr: 0x10000A608, symSize: 0x78 }
  - { offset: 0x198E1, size: 0x8, addend: 0x0, symName: __ZNSt3__16__moveB8ne180100INS_17_ClassicAlgPolicyENS_16reverse_iteratorIPiEES4_S4_EENS_4pairIT0_T2_EES6_T1_S7_, symObjAddr: 0x9C60, symBinAddr: 0x10000A680, symSize: 0x64 }
  - { offset: 0x1994D, size: 0x8, addend: 0x0, symName: __ZNSt3__123__dispatch_copy_or_moveB8ne180100INS_17_ClassicAlgPolicyENS_11__move_loopIS1_EENS_14__move_trivialENS_16reverse_iteratorIPiEES7_S7_EENS_4pairIT2_T4_EES9_T3_SA_, symObjAddr: 0x9CC4, symBinAddr: 0x10000A6E4, symSize: 0x64 }
  - { offset: 0x199CB, size: 0x8, addend: 0x0, symName: __ZNSt3__121__unwrap_and_dispatchB8ne180100INS_10__overloadINS_11__move_loopINS_17_ClassicAlgPolicyEEENS_14__move_trivialEEENS_16reverse_iteratorIPiEES9_S9_Li0EEENS_4pairIT0_T2_EESB_T1_SC_, symObjAddr: 0x9D28, symBinAddr: 0x10000A748, symSize: 0x12C }
  - { offset: 0x19A5B, size: 0x8, addend: 0x0, symName: __ZNSt3__114__unwrap_rangeB8ne180100INS_16reverse_iteratorIPiEES3_EENS_4pairIT0_S5_EET_S7_, symObjAddr: 0x9E54, symBinAddr: 0x10000A874, symSize: 0x84 }
  - { offset: 0x19BD6, size: 0x8, addend: 0x0, symName: __ZNSt3__113__unwrap_iterB8ne180100INS_16reverse_iteratorIPiEENS_18__unwrap_iter_implIS3_Lb0EEELi0EEEDTclsrT0_8__unwrapclsr3stdE7declvalIT_EEEES7_, symObjAddr: 0x9F78, symBinAddr: 0x10000A998, symSize: 0x44 }
  - { offset: 0x19C1A, size: 0x8, addend: 0x0, symName: __ZNSt3__19make_pairB8ne180100INS_16reverse_iteratorIPiEES3_EENS_4pairINS_18__unwrap_ref_decayIT_E4typeENS5_IT0_E4typeEEEOS6_OS9_, symObjAddr: 0x9FBC, symBinAddr: 0x10000A9DC, symSize: 0x38 }
  - { offset: 0x19C69, size: 0x8, addend: 0x0, symName: __ZNSt3__114__rewrap_rangeB8ne180100INS_16reverse_iteratorIPiEES3_EET_S4_T0_, symObjAddr: 0x9FF4, symBinAddr: 0x10000AA14, symSize: 0x5C }
  - { offset: 0x19CB5, size: 0x8, addend: 0x0, symName: __ZNSt3__113__rewrap_iterB8ne180100INS_16reverse_iteratorIPiEES3_NS_18__unwrap_iter_implIS3_Lb0EEEEET_S6_T0_, symObjAddr: 0xA050, symBinAddr: 0x10000AA70, symSize: 0x74 }
  - { offset: 0x19D0A, size: 0x8, addend: 0x0, symName: __ZNSt3__1neB8ne180100IPiS1_EEbRKNS_16reverse_iteratorIT_EERKNS2_IT0_EE, symObjAddr: 0xA0C4, symBinAddr: 0x10000AAE4, symSize: 0x48 }
  - { offset: 0x19E00, size: 0x8, addend: 0x0, symName: __ZNSt3__119__allocate_at_leastB8ne180100INS_9allocatorINS_6vectorIiNS1_IiEEEEEEEENS_19__allocation_resultINS_16allocator_traitsIT_E7pointerEEERS8_m, symObjAddr: 0xABF4, symBinAddr: 0x10000B614, symSize: 0x40 }
  - { offset: 0x19E43, size: 0x8, addend: 0x0, symName: __ZNSt3__142__uninitialized_allocator_move_if_noexceptB8ne180100INS_9allocatorINS_6vectorIiNS1_IiEEEEEENS_16reverse_iteratorIPS4_EES8_S8_EET2_RT_T0_T1_S9_, symObjAddr: 0xADAC, symBinAddr: 0x10000B7CC, symSize: 0x12C }
  - { offset: 0x19EE3, size: 0x8, addend: 0x0, symName: __ZNSt3__14swapB8ne180100IPNS_6vectorIiNS_9allocatorIiEEEEEENS_9enable_ifIXaasr21is_move_constructibleIT_EE5valuesr18is_move_assignableIS7_EE5valueEvE4typeERS7_SA_, symObjAddr: 0xAF24, symBinAddr: 0x10000B944, symSize: 0x3C }
  - { offset: 0x19F34, size: 0x8, addend: 0x0, symName: __ZNSt3__122__make_exception_guardB8ne180100INS_29_AllocatorDestroyRangeReverseINS_9allocatorINS_6vectorIiNS2_IiEEEEEENS_16reverse_iteratorIPS5_EEEEEENS_28__exception_guard_exceptionsIT_EESC_, symObjAddr: 0xAF74, symBinAddr: 0x10000B994, symSize: 0x4C }
  - { offset: 0x19F6A, size: 0x8, addend: 0x0, symName: __ZNSt3__1neB8ne180100IPNS_6vectorIiNS_9allocatorIiEEEES5_EEbRKNS_16reverse_iteratorIT_EERKNS6_IT0_EE, symObjAddr: 0xB004, symBinAddr: 0x10000BA24, symSize: 0x48 }
  - { offset: 0x19FB6, size: 0x8, addend: 0x0, symName: __ZNSt3__112__to_addressB8ne180100INS_16reverse_iteratorIPNS_6vectorIiNS_9allocatorIiEEEEEEvEEu7__decayIDTclsr19__to_address_helperIT_EE6__callclsr3stdE7declvalIRKS8_EEEEESA_, symObjAddr: 0xB080, symBinAddr: 0x10000BAA0, symSize: 0x24 }
  - { offset: 0x1A015, size: 0x8, addend: 0x0, symName: __ZNSt3__119__allocator_destroyB8ne180100INS_9allocatorINS_6vectorIiNS1_IiEEEEEENS_16reverse_iteratorINS6_IPS4_EEEES9_EEvRT_T0_T1_, symObjAddr: 0xB458, symBinAddr: 0x10000BE78, symSize: 0x70 }
  - { offset: 0x1A07A, size: 0x8, addend: 0x0, symName: __ZNSt3__1neB8ne180100INS_16reverse_iteratorIPNS_6vectorIiNS_9allocatorIiEEEEEES7_EEbRKNS1_IT_EERKNS1_IT0_EE, symObjAddr: 0xB504, symBinAddr: 0x10000BF24, symSize: 0x60 }
  - { offset: 0x1A0C6, size: 0x8, addend: 0x0, symName: __ZNSt3__112__to_addressB8ne180100INS_16reverse_iteratorINS1_IPNS_6vectorIiNS_9allocatorIiEEEEEEEEvEEu7__decayIDTclsr19__to_address_helperIT_EE6__callclsr3stdE7declvalIRKS9_EEEEESB_, symObjAddr: 0xB564, symBinAddr: 0x10000BF84, symSize: 0x24 }
  - { offset: 0x1A125, size: 0x8, addend: 0x0, symName: __ZNSt3__118__constexpr_strlenB8ne180100EPKc, symObjAddr: 0xB9E4, symBinAddr: 0x10000C404, symSize: 0x24 }
  - { offset: 0x1A184, size: 0x8, addend: 0x0, symName: __ZNSt3__112__destroy_atB8ne180100INS_4pairINS_6vectorIiNS_9allocatorIiEEEES5_EELi0EEEvPT_, symObjAddr: 0xBFA0, symBinAddr: 0x10000C9C0, symSize: 0x24 }
  - { offset: 0x1A1BB, size: 0x8, addend: 0x0, symName: __ZNSt3__1ltB8ne180100INS_6vectorIiNS_9allocatorIiEEEES4_S4_S4_EEbRKNS_4pairIT_T0_EERKNS5_IT1_T2_EE, symObjAddr: 0xC790, symBinAddr: 0x10000D1B0, symSize: 0x88 }
  - { offset: 0x1A21C, size: 0x8, addend: 0x0, symName: __ZNSt3__1ltB8ne180100IiNS_9allocatorIiEEEEbRKNS_6vectorIT_T0_EES8_, symObjAddr: 0xC818, symBinAddr: 0x10000D238, symSize: 0x68 }
  - { offset: 0x1A26B, size: 0x8, addend: 0x0, symName: __ZNSt3__123lexicographical_compareB8ne180100INS_11__wrap_iterIPKiEES4_EEbT_S5_T0_S6_, symObjAddr: 0xC880, symBinAddr: 0x10000D2A0, symSize: 0x60 }
  - { offset: 0x1A2D3, size: 0x8, addend: 0x0, symName: __ZNSt3__123lexicographical_compareB8ne180100INS_11__wrap_iterIPKiEES4_NS_6__lessIvvEEEEbT_S7_T0_S8_T1_, symObjAddr: 0xC940, symBinAddr: 0x10000D360, symSize: 0x64 }
  - { offset: 0x1A352, size: 0x8, addend: 0x0, symName: __ZNSt3__125__lexicographical_compareB8ne180100IRNS_6__lessIvvEENS_11__wrap_iterIPKiEES7_EEbT0_S8_T1_S9_T_, symObjAddr: 0xC9A4, symBinAddr: 0x10000D3C4, symSize: 0x11C }
  - { offset: 0x1A3D1, size: 0x8, addend: 0x0, symName: __ZNSt3__1neB8ne180100IPKiEEbRKNS_11__wrap_iterIT_EES7_, symObjAddr: 0xCAC0, symBinAddr: 0x10000D4E0, symSize: 0x34 }
  - { offset: 0x1A414, size: 0x8, addend: 0x0, symName: __ZNSt3__1eqB8ne180100IPKiEEbRKNS_11__wrap_iterIT_EES7_, symObjAddr: 0xCAF4, symBinAddr: 0x10000D514, symSize: 0x48 }
  - { offset: 0x1A475, size: 0x8, addend: 0x0, symName: __ZNSt3__127__tree_balance_after_insertB8ne180100IPNS_16__tree_node_baseIPvEEEEvT_S5_, symObjAddr: 0xD078, symBinAddr: 0x10000DA98, symSize: 0x32C }
  - { offset: 0x1A4F1, size: 0x8, addend: 0x0, symName: __ZNSt3__120__tree_is_left_childB8ne180100IPNS_16__tree_node_baseIPvEEEEbT_, symObjAddr: 0xD3E4, symBinAddr: 0x10000DE04, symSize: 0x2C }
  - { offset: 0x1A526, size: 0x8, addend: 0x0, symName: __ZNSt3__118__tree_left_rotateB8ne180100IPNS_16__tree_node_baseIPvEEEEvT_, symObjAddr: 0xD410, symBinAddr: 0x10000DE30, symSize: 0xD8 }
  - { offset: 0x1A565, size: 0x8, addend: 0x0, symName: __ZNSt3__119__tree_right_rotateB8ne180100IPNS_16__tree_node_baseIPvEEEEvT_, symObjAddr: 0xD4E8, symBinAddr: 0x10000DF08, symSize: 0xCC }
  - { offset: 0x1A5A7, size: 0x8, addend: 0x0, symName: __ZNSt3__116__pad_and_outputB8ne180100IcNS_11char_traitsIcEEEENS_19ostreambuf_iteratorIT_T0_EES6_PKS4_S8_S8_RNS_8ios_baseES4_, symObjAddr: 0xDAE0, symBinAddr: 0x10000E500, symSize: 0x240 }
  - { offset: 0x1A676, size: 0x8, addend: 0x0, symName: __ZNSt3__112__to_addressB8ne180100IcEEPT_S2_, symObjAddr: 0xDF24, symBinAddr: 0x10000E944, symSize: 0x14 }
  - { offset: 0x1BA85, size: 0x8, addend: 0x0, symName: __ZSt28__throw_bad_array_new_lengthB8ne180100v, symObjAddr: 0x2284, symBinAddr: 0x100002CA4, symSize: 0x34 }
  - { offset: 0x1C8F4, size: 0x8, addend: 0x0, symName: __ZNSt3__16vectorINS0_INS_12basic_stringIcNS_11char_traitsIcEENS_9allocatorIcEEEENS4_IS6_EEEENS4_IS8_EEE26__swap_out_circular_bufferERNS_14__split_bufferIS8_RS9_EE, symObjAddr: 0x6E54, symBinAddr: 0x100007874, symSize: 0x110 }
  - { offset: 0x1C977, size: 0x8, addend: 0x0, symName: __ZNSt3__16vectorINS_12basic_stringIcNS_11char_traitsIcEENS_9allocatorIcEEEENS4_IS6_EEE26__swap_out_circular_bufferERNS_14__split_bufferIS6_RS7_EE, symObjAddr: 0x7D4C, symBinAddr: 0x10000876C, symSize: 0x110 }
  - { offset: 0x1CB9D, size: 0x8, addend: 0x0, symName: __ZNSt3__16vectorIiNS_9allocatorIiEEE26__swap_out_circular_bufferERNS_14__split_bufferIiRS2_EE, symObjAddr: 0x9780, symBinAddr: 0x10000A1A0, symSize: 0x110 }
  - { offset: 0x1CBF5, size: 0x8, addend: 0x0, symName: __ZNSt3__16vectorINS0_IiNS_9allocatorIiEEEENS1_IS3_EEE26__swap_out_circular_bufferERNS_14__split_bufferIS3_RS4_EE, symObjAddr: 0xA884, symBinAddr: 0x10000B2A4, symSize: 0x110 }
  - { offset: 0x1D0AB, size: 0x8, addend: 0x0, symName: __Z11parse_inputNSt3__112basic_stringIcNS_11char_traitsIcEENS_9allocatorIcEEEE, symObjAddr: 0x0, symBinAddr: 0x100000A20, symSize: 0x4FC }
  - { offset: 0x1D464, size: 0x8, addend: 0x0, symName: __ZNSt3__114basic_ifstreamIcNS_11char_traitsIcEEEC1ERKNS_12basic_stringIcS2_NS_9allocatorIcEEEEj, symObjAddr: 0x4FC, symBinAddr: 0x100000F1C, symSize: 0x164 }
  - { offset: 0x1D4AE, size: 0x8, addend: 0x0, symName: __ZNSt3__16vectorINS0_INS_12basic_stringIcNS_11char_traitsIcEENS_9allocatorIcEEEENS4_IS6_EEEENS4_IS8_EEEC1B8ne180100Ev, symObjAddr: 0x660, symBinAddr: 0x100001080, symSize: 0x2C }
  - { offset: 0x1D4D8, size: 0x8, addend: 0x0, symName: __ZNKSt3__114basic_ifstreamIcNS_11char_traitsIcEEE7is_openEv, symObjAddr: 0x68C, symBinAddr: 0x1000010AC, symSize: 0x2C }
  - { offset: 0x1D500, size: 0x8, addend: 0x0, symName: __ZNSt3__16vectorINS_12basic_stringIcNS_11char_traitsIcEENS_9allocatorIcEEEENS4_IS6_EEEC1B8ne180100Ev, symObjAddr: 0x6B8, symBinAddr: 0x1000010D8, symSize: 0x2C }
  - { offset: 0x1D52A, size: 0x8, addend: 0x0, symName: __ZNSt3__112basic_stringIcNS_11char_traitsIcEENS_9allocatorIcEEEC1B8ne180100Ev, symObjAddr: 0x6E4, symBinAddr: 0x100001104, symSize: 0x2C }
  - { offset: 0x1D554, size: 0x8, addend: 0x0, symName: __ZNKSt3__19basic_iosIcNS_11char_traitsIcEEEcvbB8ne180100Ev, symObjAddr: 0x76C, symBinAddr: 0x10000118C, symSize: 0x2C }
  - { offset: 0x1D57A, size: 0x8, addend: 0x0, symName: __ZNKSt3__112basic_stringIcNS_11char_traitsIcEENS_9allocatorIcEEE5emptyB8ne180100Ev, symObjAddr: 0x798, symBinAddr: 0x1000011B8, symSize: 0x30 }
  - { offset: 0x1D5A0, size: 0x8, addend: 0x0, symName: __ZNKSt3__16vectorINS_12basic_stringIcNS_11char_traitsIcEENS_9allocatorIcEEEENS4_IS6_EEE5emptyB8ne180100Ev, symObjAddr: 0x7C8, symBinAddr: 0x1000011E8, symSize: 0x28 }
  - { offset: 0x1D5C6, size: 0x8, addend: 0x0, symName: __ZNSt3__16vectorINS_12basic_stringIcNS_11char_traitsIcEENS_9allocatorIcEEEENS4_IS6_EEEixB8ne180100Em, symObjAddr: 0x7F0, symBinAddr: 0x100001210, symSize: 0x2C }
  - { offset: 0x1D5FD, size: 0x8, addend: 0x0, symName: __ZNSt3__112basic_stringIcNS_11char_traitsIcEENS_9allocatorIcEEEixB8ne180100Em, symObjAddr: 0x81C, symBinAddr: 0x10000123C, symSize: 0x48 }
  - { offset: 0x1D632, size: 0x8, addend: 0x0, symName: __ZNSt3__16vectorINS0_INS_12basic_stringIcNS_11char_traitsIcEENS_9allocatorIcEEEENS4_IS6_EEEENS4_IS8_EEE9push_backB8ne180100EOS8_, symObjAddr: 0x864, symBinAddr: 0x100001284, symSize: 0x90 }
  - { offset: 0x1D678, size: 0x8, addend: 0x0, symName: __ZNSt3__16vectorINS_12basic_stringIcNS_11char_traitsIcEENS_9allocatorIcEEEENS4_IS6_EEE5beginB8ne180100Ev, symObjAddr: 0x8F4, symBinAddr: 0x100001314, symSize: 0x30 }
  - { offset: 0x1D6A0, size: 0x8, addend: 0x0, symName: __ZNKSt3__111__wrap_iterIPNS_12basic_stringIcNS_11char_traitsIcEENS_9allocatorIcEEEEEplB8ne180100El, symObjAddr: 0x924, symBinAddr: 0x100001344, symSize: 0x3C }
  - { offset: 0x1D6E2, size: 0x8, addend: 0x0, symName: __ZNSt3__16vectorINS_12basic_stringIcNS_11char_traitsIcEENS_9allocatorIcEEEENS4_IS6_EEE3endB8ne180100Ev, symObjAddr: 0x960, symBinAddr: 0x100001380, symSize: 0x30 }
  - { offset: 0x1D70A, size: 0x8, addend: 0x0, symName: __ZNSt3__16vectorINS_12basic_stringIcNS_11char_traitsIcEENS_9allocatorIcEEEENS4_IS6_EEEC1INS_11__wrap_iterIPS6_EELi0EEET_SD_, symObjAddr: 0x990, symBinAddr: 0x1000013B0, symSize: 0x3C }
  - { offset: 0x1D763, size: 0x8, addend: 0x0, symName: __ZNSt3__16vectorINS_12basic_stringIcNS_11char_traitsIcEENS_9allocatorIcEEEENS4_IS6_EEED1B8ne180100Ev, symObjAddr: 0x9CC, symBinAddr: 0x1000013EC, symSize: 0x2C }
  - { offset: 0x1D78D, size: 0x8, addend: 0x0, symName: __ZNSt3__16vectorINS_12basic_stringIcNS_11char_traitsIcEENS_9allocatorIcEEEENS4_IS6_EEE4backB8ne180100Ev, symObjAddr: 0x9F8, symBinAddr: 0x100001418, symSize: 0x1C }
  - { offset: 0x1D7B3, size: 0x8, addend: 0x0, symName: __ZNKSt3__111__wrap_iterIPNS_12basic_stringIcNS_11char_traitsIcEENS_9allocatorIcEEEEEmiB8ne180100El, symObjAddr: 0xA14, symBinAddr: 0x100001434, symSize: 0x3C }
  - { offset: 0x1D7E7, size: 0x8, addend: 0x0, symName: __ZNSt3__16vectorINS_12basic_stringIcNS_11char_traitsIcEENS_9allocatorIcEEEENS4_IS6_EEE5clearB8ne180100Ev, symObjAddr: 0xA50, symBinAddr: 0x100001470, symSize: 0x44 }
  - { offset: 0x1D81C, size: 0x8, addend: 0x0, symName: __ZNSt3__16vectorINS_12basic_stringIcNS_11char_traitsIcEENS_9allocatorIcEEEENS4_IS6_EEE9push_backB8ne180100ERKS6_, symObjAddr: 0xA94, symBinAddr: 0x1000014B4, symSize: 0x90 }
  - { offset: 0x1D862, size: 0x8, addend: 0x0, symName: __ZNSt3__114basic_ifstreamIcNS_11char_traitsIcEEE5closeEv, symObjAddr: 0xB24, symBinAddr: 0x100001544, symSize: 0x58 }
  - { offset: 0x1D8A6, size: 0x8, addend: 0x0, symName: __ZNSt3__14pairINS_6vectorINS1_INS_12basic_stringIcNS_11char_traitsIcEENS_9allocatorIcEEEENS5_IS7_EEEENS5_IS9_EEEESB_EC1B8ne180100IRSB_SE_Li0EEEOT_OT0_, symObjAddr: 0xB7C, symBinAddr: 0x10000159C, symSize: 0x3C }
  - { offset: 0x1D904, size: 0x8, addend: 0x0, symName: __ZNSt3__16vectorINS0_INS_12basic_stringIcNS_11char_traitsIcEENS_9allocatorIcEEEENS4_IS6_EEEENS4_IS8_EEED1B8ne180100Ev, symObjAddr: 0xBB8, symBinAddr: 0x1000015D8, symSize: 0x2C }
  - { offset: 0x1D933, size: 0x8, addend: 0x0, symName: __ZNSt3__114basic_ifstreamIcNS_11char_traitsIcEEED1Ev, symObjAddr: 0xBE4, symBinAddr: 0x100001604, symSize: 0x40 }
  - { offset: 0x1D95F, size: 0x8, addend: 0x0, symName: __Z10get_countsRKNSt3__16vectorINS0_INS_12basic_stringIcNS_11char_traitsIcEENS_9allocatorIcEEEENS4_IS6_EEEENS4_IS8_EEEE, symObjAddr: 0xC24, symBinAddr: 0x100001644, symSize: 0x20C }
  - { offset: 0x1DA35, size: 0x8, addend: 0x0, symName: __ZNSt3__16vectorINS0_IiNS_9allocatorIiEEEENS1_IS3_EEEC1B8ne180100Ev, symObjAddr: 0xE30, symBinAddr: 0x100001850, symSize: 0x2C }
  - { offset: 0x1DA5F, size: 0x8, addend: 0x0, symName: __ZNKSt3__16vectorINS0_INS_12basic_stringIcNS_11char_traitsIcEENS_9allocatorIcEEEENS4_IS6_EEEENS4_IS8_EEE5beginB8ne180100Ev, symObjAddr: 0xE5C, symBinAddr: 0x10000187C, symSize: 0x30 }
  - { offset: 0x1DA87, size: 0x8, addend: 0x0, symName: __ZNKSt3__16vectorINS0_INS_12basic_stringIcNS_11char_traitsIcEENS_9allocatorIcEEEENS4_IS6_EEEENS4_IS8_EEE3endB8ne180100Ev, symObjAddr: 0xE8C, symBinAddr: 0x1000018AC, symSize: 0x30 }
  - { offset: 0x1DAAF, size: 0x8, addend: 0x0, symName: __ZNKSt3__111__wrap_iterIPKNS_6vectorINS_12basic_stringIcNS_11char_traitsIcEENS_9allocatorIcEEEENS5_IS7_EEEEEdeB8ne180100Ev, symObjAddr: 0xEF0, symBinAddr: 0x100001910, symSize: 0x18 }
  - { offset: 0x1DAD5, size: 0x8, addend: 0x0, symName: __ZNSt3__16vectorINS_12basic_stringIcNS_11char_traitsIcEENS_9allocatorIcEEEENS4_IS6_EEEC1ERKS8_, symObjAddr: 0xF08, symBinAddr: 0x100001928, symSize: 0x34 }
  - { offset: 0x1DB10, size: 0x8, addend: 0x0, symName: __ZNSt3__16vectorIiNS_9allocatorIiEEEC1B8ne180100Ev, symObjAddr: 0xF3C, symBinAddr: 0x10000195C, symSize: 0x2C }
  - { offset: 0x1DB3A, size: 0x8, addend: 0x0, symName: __ZNKSt3__112basic_stringIcNS_11char_traitsIcEENS_9allocatorIcEEE4sizeB8ne180100Ev, symObjAddr: 0xF68, symBinAddr: 0x100001988, symSize: 0x54 }
  - { offset: 0x1DB60, size: 0x8, addend: 0x0, symName: __ZNKSt3__16vectorINS_12basic_stringIcNS_11char_traitsIcEENS_9allocatorIcEEEENS4_IS6_EEE4sizeB8ne180100Ev, symObjAddr: 0xFBC, symBinAddr: 0x1000019DC, symSize: 0x28 }
  - { offset: 0x1DB86, size: 0x8, addend: 0x0, symName: __ZNSt3__16vectorIiNS_9allocatorIiEEE9push_backB8ne180100ERKi, symObjAddr: 0xFE4, symBinAddr: 0x100001A04, symSize: 0x90 }
  - { offset: 0x1DBCC, size: 0x8, addend: 0x0, symName: __ZNSt3__16vectorINS0_IiNS_9allocatorIiEEEENS1_IS3_EEE9push_backB8ne180100ERKS3_, symObjAddr: 0x1074, symBinAddr: 0x100001A94, symSize: 0x90 }
  - { offset: 0x1DC12, size: 0x8, addend: 0x0, symName: __ZNSt3__16vectorIiNS_9allocatorIiEEED1B8ne180100Ev, symObjAddr: 0x1104, symBinAddr: 0x100001B24, symSize: 0x2C }
  - { offset: 0x1DC3C, size: 0x8, addend: 0x0, symName: __ZNSt3__111__wrap_iterIPKNS_6vectorINS_12basic_stringIcNS_11char_traitsIcEENS_9allocatorIcEEEENS5_IS7_EEEEEppB8ne180100Ev, symObjAddr: 0x1130, symBinAddr: 0x100001B50, symSize: 0x20 }
  - { offset: 0x1DC62, size: 0x8, addend: 0x0, symName: __ZNSt3__16vectorINS0_IiNS_9allocatorIiEEEENS1_IS3_EEED1B8ne180100Ev, symObjAddr: 0x1150, symBinAddr: 0x100001B70, symSize: 0x2C }
  - { offset: 0x1DC8C, size: 0x8, addend: 0x0, symName: _main, symObjAddr: 0x117C, symBinAddr: 0x100001B9C, symSize: 0x3E8 }
  - { offset: 0x1DDD7, size: 0x8, addend: 0x0, symName: __ZNSt3__112basic_stringIcNS_11char_traitsIcEENS_9allocatorIcEEEC1B8ne180100ILi0EEEPKc, symObjAddr: 0x1564, symBinAddr: 0x100001F84, symSize: 0x34 }
  - { offset: 0x1DF53, size: 0x8, addend: 0x0, symName: __ZNSt3__13setINS_4pairINS_6vectorIiNS_9allocatorIiEEEES5_EENS_4lessIS6_EENS3_IS6_EEEC1B8ne180100Ev, symObjAddr: 0x15E0, symBinAddr: 0x100002000, symSize: 0x2C }
  - { offset: 0x1DF7D, size: 0x8, addend: 0x0, symName: __ZNSt3__16vectorINS0_IiNS_9allocatorIiEEEENS1_IS3_EEE5beginB8ne180100Ev, symObjAddr: 0x160C, symBinAddr: 0x10000202C, symSize: 0x30 }
  - { offset: 0x1DFA5, size: 0x8, addend: 0x0, symName: __ZNSt3__16vectorINS0_IiNS_9allocatorIiEEEENS1_IS3_EEE3endB8ne180100Ev, symObjAddr: 0x163C, symBinAddr: 0x10000205C, symSize: 0x30 }
  - { offset: 0x1DFCD, size: 0x8, addend: 0x0, symName: __ZNKSt3__111__wrap_iterIPNS_6vectorIiNS_9allocatorIiEEEEEdeB8ne180100Ev, symObjAddr: 0x16A0, symBinAddr: 0x1000020C0, symSize: 0x18 }
  - { offset: 0x1DFF3, size: 0x8, addend: 0x0, symName: __ZNKSt3__16vectorIiNS_9allocatorIiEEEixB8ne180100Em, symObjAddr: 0x16B8, symBinAddr: 0x1000020D8, symSize: 0x24 }
  - { offset: 0x1E02A, size: 0x8, addend: 0x0, symName: __ZNSt3__13setINS_4pairINS_6vectorIiNS_9allocatorIiEEEES5_EENS_4lessIS6_EENS3_IS6_EEE6insertB8ne180100EOS6_, symObjAddr: 0x16DC, symBinAddr: 0x1000020FC, symSize: 0x4C }
  - { offset: 0x1E05F, size: 0x8, addend: 0x0, symName: __ZNSt3__14pairINS_6vectorIiNS_9allocatorIiEEEES4_EC1B8ne180100ILb1ELi0EEERKS4_S8_, symObjAddr: 0x1728, symBinAddr: 0x100002148, symSize: 0x3C }
  - { offset: 0x1E0B5, size: 0x8, addend: 0x0, symName: __ZNSt3__14pairINS_6vectorIiNS_9allocatorIiEEEES4_ED1Ev, symObjAddr: 0x1764, symBinAddr: 0x100002184, symSize: 0x2C }
  - { offset: 0x1E0E1, size: 0x8, addend: 0x0, symName: __ZNSt3__111__wrap_iterIPNS_6vectorIiNS_9allocatorIiEEEEEppB8ne180100Ev, symObjAddr: 0x1790, symBinAddr: 0x1000021B0, symSize: 0x20 }
  - { offset: 0x1E107, size: 0x8, addend: 0x0, symName: __ZNKSt3__13setINS_4pairINS_6vectorIiNS_9allocatorIiEEEES5_EENS_4lessIS6_EENS3_IS6_EEE4sizeB8ne180100Ev, symObjAddr: 0x17B0, symBinAddr: 0x1000021D0, symSize: 0x28 }
  - { offset: 0x1E12D, size: 0x8, addend: 0x0, symName: __ZNSt3__113basic_ostreamIcNS_11char_traitsIcEEElsB8ne180100EPFRS3_S4_E, symObjAddr: 0x17D8, symBinAddr: 0x1000021F8, symSize: 0x2C }
  - { offset: 0x1E161, size: 0x8, addend: 0x0, symName: __ZNSt3__13setINS_4pairINS_6vectorIiNS_9allocatorIiEEEES5_EENS_4lessIS6_EENS3_IS6_EEED1B8ne180100Ev, symObjAddr: 0x185C, symBinAddr: 0x10000227C, symSize: 0x2C }
  - { offset: 0x1E18B, size: 0x8, addend: 0x0, symName: __ZNSt3__14pairINS_6vectorINS1_INS_12basic_stringIcNS_11char_traitsIcEENS_9allocatorIcEEEENS5_IS7_EEEENS5_IS9_EEEESB_ED1Ev, symObjAddr: 0x1888, symBinAddr: 0x1000022A8, symSize: 0x2C }
  - { offset: 0x1E1B7, size: 0x8, addend: 0x0, symName: __ZNSt3__111__wrap_iterIPNS_12basic_stringIcNS_11char_traitsIcEENS_9allocatorIcEEEEEpLB8ne180100El, symObjAddr: 0x1940, symBinAddr: 0x100002360, symSize: 0x30 }
  - { offset: 0x1E1EB, size: 0x8, addend: 0x0, symName: __ZNSt3__14pairINS_6vectorINS1_INS_12basic_stringIcNS_11char_traitsIcEENS_9allocatorIcEEEENS5_IS7_EEEENS5_IS9_EEEESB_EC2B8ne180100IRSB_SE_Li0EEEOT_OT0_, symObjAddr: 0x1970, symBinAddr: 0x100002390, symSize: 0x70 }
  - { offset: 0x1E249, size: 0x8, addend: 0x0, symName: __ZNSt3__16vectorINS0_INS_12basic_stringIcNS_11char_traitsIcEENS_9allocatorIcEEEENS4_IS6_EEEENS4_IS8_EEEC1ERKSA_, symObjAddr: 0x19E0, symBinAddr: 0x100002400, symSize: 0x34 }
  - { offset: 0x1E284, size: 0x8, addend: 0x0, symName: __ZNSt3__16vectorINS0_INS_12basic_stringIcNS_11char_traitsIcEENS_9allocatorIcEEEENS4_IS6_EEEENS4_IS8_EEEC2ERKSA_, symObjAddr: 0x1A14, symBinAddr: 0x100002434, symSize: 0x94 }
  - { offset: 0x1E2CA, size: 0x8, addend: 0x0, symName: __ZNSt3__116allocator_traitsINS_9allocatorINS_6vectorINS_12basic_stringIcNS_11char_traitsIcEENS1_IcEEEENS1_IS7_EEEEEEE37select_on_container_copy_constructionB8ne180100ISA_vvEESA_RKSA_, symObjAddr: 0x1AA8, symBinAddr: 0x1000024C8, symSize: 0x10 }
  - { offset: 0x1E2F9, size: 0x8, addend: 0x0, symName: __ZNKSt3__16vectorINS0_INS_12basic_stringIcNS_11char_traitsIcEENS_9allocatorIcEEEENS4_IS6_EEEENS4_IS8_EEE7__allocB8ne180100Ev, symObjAddr: 0x1AB8, symBinAddr: 0x1000024D8, symSize: 0x28 }
  - { offset: 0x1E32B, size: 0x8, addend: 0x0, symName: __ZNSt3__117__compressed_pairIPNS_6vectorINS_12basic_stringIcNS_11char_traitsIcEENS_9allocatorIcEEEENS5_IS7_EEEENS5_IS9_EEEC1B8ne180100IDnSB_EEOT_OT0_, symObjAddr: 0x1AE0, symBinAddr: 0x100002500, symSize: 0x3C }
  - { offset: 0x1E383, size: 0x8, addend: 0x0, symName: __ZNSt3__16vectorINS0_INS_12basic_stringIcNS_11char_traitsIcEENS_9allocatorIcEEEENS4_IS6_EEEENS4_IS8_EEE16__init_with_sizeB8ne180100IPS8_SC_EEvT_T0_m, symObjAddr: 0x1B1C, symBinAddr: 0x10000253C, symSize: 0xB8 }
  - { offset: 0x1E3F7, size: 0x8, addend: 0x0, symName: __ZNKSt3__16vectorINS0_INS_12basic_stringIcNS_11char_traitsIcEENS_9allocatorIcEEEENS4_IS6_EEEENS4_IS8_EEE4sizeB8ne180100Ev, symObjAddr: 0x1BD4, symBinAddr: 0x1000025F4, symSize: 0x28 }
  - { offset: 0x1E41D, size: 0x8, addend: 0x0, symName: __ZNKSt3__117__compressed_pairIPNS_6vectorINS_12basic_stringIcNS_11char_traitsIcEENS_9allocatorIcEEEENS5_IS7_EEEENS5_IS9_EEE6secondB8ne180100Ev, symObjAddr: 0x1BFC, symBinAddr: 0x10000261C, symSize: 0x24 }
  - { offset: 0x1E443, size: 0x8, addend: 0x0, symName: __ZNKSt3__122__compressed_pair_elemINS_9allocatorINS_6vectorINS_12basic_stringIcNS_11char_traitsIcEENS1_IcEEEENS1_IS7_EEEEEELi1ELb1EE5__getB8ne180100Ev, symObjAddr: 0x1C20, symBinAddr: 0x100002640, symSize: 0x14 }
  - { offset: 0x1E469, size: 0x8, addend: 0x0, symName: __ZNSt3__117__compressed_pairIPNS_6vectorINS_12basic_stringIcNS_11char_traitsIcEENS_9allocatorIcEEEENS5_IS7_EEEENS5_IS9_EEEC2B8ne180100IDnSB_EEOT_OT0_, symObjAddr: 0x1C34, symBinAddr: 0x100002654, symSize: 0x44 }
  - { offset: 0x1E4C1, size: 0x8, addend: 0x0, symName: __ZNSt3__122__compressed_pair_elemIPNS_6vectorINS_12basic_stringIcNS_11char_traitsIcEENS_9allocatorIcEEEENS5_IS7_EEEELi0ELb0EEC2B8ne180100IDnvEEOT_, symObjAddr: 0x1C78, symBinAddr: 0x100002698, symSize: 0x1C }
  - { offset: 0x1E503, size: 0x8, addend: 0x0, symName: __ZNSt3__122__compressed_pair_elemINS_9allocatorINS_6vectorINS_12basic_stringIcNS_11char_traitsIcEENS1_IcEEEENS1_IS7_EEEEEELi1ELb1EEC2B8ne180100ISA_vEEOT_, symObjAddr: 0x1C94, symBinAddr: 0x1000026B4, symSize: 0x18 }
  - { offset: 0x1E545, size: 0x8, addend: 0x0, symName: __ZNSt3__16vectorINS0_INS_12basic_stringIcNS_11char_traitsIcEENS_9allocatorIcEEEENS4_IS6_EEEENS4_IS8_EEE16__destroy_vectorC1B8ne180100ERSA_, symObjAddr: 0x1CEC, symBinAddr: 0x10000270C, symSize: 0x34 }
  - { offset: 0x1E57E, size: 0x8, addend: 0x0, symName: __ZNSt3__16vectorINS0_INS_12basic_stringIcNS_11char_traitsIcEENS_9allocatorIcEEEENS4_IS6_EEEENS4_IS8_EEE11__vallocateB8ne180100Em, symObjAddr: 0x1D20, symBinAddr: 0x100002740, symSize: 0xB4 }
  - { offset: 0x1E5C2, size: 0x8, addend: 0x0, symName: __ZNSt3__16vectorINS0_INS_12basic_stringIcNS_11char_traitsIcEENS_9allocatorIcEEEENS4_IS6_EEEENS4_IS8_EEE18__construct_at_endIPS8_SC_EEvT_T0_m, symObjAddr: 0x1DD4, symBinAddr: 0x1000027F4, symSize: 0x8C }
  - { offset: 0x1E638, size: 0x8, addend: 0x0, symName: __ZNSt3__128__exception_guard_exceptionsINS_6vectorINS1_INS_12basic_stringIcNS_11char_traitsIcEENS_9allocatorIcEEEENS5_IS7_EEEENS5_IS9_EEE16__destroy_vectorEE10__completeB8ne180100Ev, symObjAddr: 0x1E60, symBinAddr: 0x100002880, symSize: 0x1C }
  - { offset: 0x1E65E, size: 0x8, addend: 0x0, symName: __ZNSt3__128__exception_guard_exceptionsINS_6vectorINS1_INS_12basic_stringIcNS_11char_traitsIcEENS_9allocatorIcEEEENS5_IS7_EEEENS5_IS9_EEE16__destroy_vectorEED1B8ne180100Ev, symObjAddr: 0x1E7C, symBinAddr: 0x10000289C, symSize: 0x2C }
  - { offset: 0x1E688, size: 0x8, addend: 0x0, symName: __ZNSt3__128__exception_guard_exceptionsINS_6vectorINS1_INS_12basic_stringIcNS_11char_traitsIcEENS_9allocatorIcEEEENS5_IS7_EEEENS5_IS9_EEE16__destroy_vectorEEC1B8ne180100ESC_, symObjAddr: 0x1EA8, symBinAddr: 0x1000028C8, symSize: 0x34 }
  - { offset: 0x1E6C0, size: 0x8, addend: 0x0, symName: __ZNSt3__128__exception_guard_exceptionsINS_6vectorINS1_INS_12basic_stringIcNS_11char_traitsIcEENS_9allocatorIcEEEENS5_IS7_EEEENS5_IS9_EEE16__destroy_vectorEEC2B8ne180100ESC_, symObjAddr: 0x1EDC, symBinAddr: 0x1000028FC, symSize: 0x24 }
  - { offset: 0x1E6F8, size: 0x8, addend: 0x0, symName: __ZNSt3__16vectorINS0_INS_12basic_stringIcNS_11char_traitsIcEENS_9allocatorIcEEEENS4_IS6_EEEENS4_IS8_EEE16__destroy_vectorC2B8ne180100ERSA_, symObjAddr: 0x1F00, symBinAddr: 0x100002920, symSize: 0x20 }
  - { offset: 0x1E731, size: 0x8, addend: 0x0, symName: __ZNKSt3__16vectorINS0_INS_12basic_stringIcNS_11char_traitsIcEENS_9allocatorIcEEEENS4_IS6_EEEENS4_IS8_EEE8max_sizeEv, symObjAddr: 0x1F20, symBinAddr: 0x100002940, symSize: 0x60 }
  - { offset: 0x1E759, size: 0x8, addend: 0x0, symName: __ZNKSt3__16vectorINS0_INS_12basic_stringIcNS_11char_traitsIcEENS_9allocatorIcEEEENS4_IS6_EEEENS4_IS8_EEE20__throw_length_errorB8ne180100Ev, symObjAddr: 0x1F80, symBinAddr: 0x1000029A0, symSize: 0x1C }
  - { offset: 0x1E77F, size: 0x8, addend: 0x0, symName: __ZNSt3__16vectorINS0_INS_12basic_stringIcNS_11char_traitsIcEENS_9allocatorIcEEEENS4_IS6_EEEENS4_IS8_EEE7__allocB8ne180100Ev, symObjAddr: 0x1FDC, symBinAddr: 0x1000029FC, symSize: 0x28 }
  - { offset: 0x1E7A5, size: 0x8, addend: 0x0, symName: __ZNSt3__16vectorINS0_INS_12basic_stringIcNS_11char_traitsIcEENS_9allocatorIcEEEENS4_IS6_EEEENS4_IS8_EEE9__end_capB8ne180100Ev, symObjAddr: 0x2004, symBinAddr: 0x100002A24, symSize: 0x28 }
  - { offset: 0x1E7CB, size: 0x8, addend: 0x0, symName: __ZNKSt3__16vectorINS0_INS_12basic_stringIcNS_11char_traitsIcEENS_9allocatorIcEEEENS4_IS6_EEEENS4_IS8_EEE14__annotate_newB8ne180100Em, symObjAddr: 0x202C, symBinAddr: 0x100002A4C, symSize: 0x14 }
  - { offset: 0x1E800, size: 0x8, addend: 0x0, symName: __ZNSt3__116allocator_traitsINS_9allocatorINS_6vectorINS_12basic_stringIcNS_11char_traitsIcEENS1_IcEEEENS1_IS7_EEEEEEE8max_sizeB8ne180100ISA_vEEmRKSA_, symObjAddr: 0x206C, symBinAddr: 0x100002A8C, symSize: 0x24 }
  - { offset: 0x1E82E, size: 0x8, addend: 0x0, symName: __ZNSt3__114numeric_limitsIlE3maxB8ne180100Ev, symObjAddr: 0x2090, symBinAddr: 0x100002AB0, symSize: 0x14 }
  - { offset: 0x1E84C, size: 0x8, addend: 0x0, symName: __ZNKSt3__16__lessIvvEclB8ne180100ImmEEbRKT_RKT0_, symObjAddr: 0x20F8, symBinAddr: 0x100002B18, symSize: 0x34 }
  - { offset: 0x1E8A0, size: 0x8, addend: 0x0, symName: __ZNKSt3__19allocatorINS_6vectorINS_12basic_stringIcNS_11char_traitsIcEENS0_IcEEEENS0_IS6_EEEEE8max_sizeB8ne180100Ev, symObjAddr: 0x212C, symBinAddr: 0x100002B4C, symSize: 0x18 }
  - { offset: 0x1E8C6, size: 0x8, addend: 0x0, symName: __ZNSt3__123__libcpp_numeric_limitsIlLb1EE3maxB8ne180100Ev, symObjAddr: 0x2144, symBinAddr: 0x100002B64, symSize: 0x8 }
  - { offset: 0x1E8DA, size: 0x8, addend: 0x0, symName: __ZNSt12length_errorC1B8ne180100EPKc, symObjAddr: 0x21B0, symBinAddr: 0x100002BD0, symSize: 0x34 }
  - { offset: 0x1E912, size: 0x8, addend: 0x0, symName: __ZNSt12length_errorC2B8ne180100EPKc, symObjAddr: 0x21E4, symBinAddr: 0x100002C04, symSize: 0x44 }
  - { offset: 0x1E94A, size: 0x8, addend: 0x0, symName: __ZNSt3__19allocatorINS_6vectorINS_12basic_stringIcNS_11char_traitsIcEENS0_IcEEEENS0_IS6_EEEEE8allocateB8ne180100Em, symObjAddr: 0x2228, symBinAddr: 0x100002C48, symSize: 0x5C }
  - { offset: 0x1E97E, size: 0x8, addend: 0x0, symName: __ZNSt3__117__compressed_pairIPNS_6vectorINS_12basic_stringIcNS_11char_traitsIcEENS_9allocatorIcEEEENS5_IS7_EEEENS5_IS9_EEE6secondB8ne180100Ev, symObjAddr: 0x2388, symBinAddr: 0x100002DA8, symSize: 0x24 }
  - { offset: 0x1E9A4, size: 0x8, addend: 0x0, symName: __ZNSt3__122__compressed_pair_elemINS_9allocatorINS_6vectorINS_12basic_stringIcNS_11char_traitsIcEENS1_IcEEEENS1_IS7_EEEEEELi1ELb1EE5__getB8ne180100Ev, symObjAddr: 0x23AC, symBinAddr: 0x100002DCC, symSize: 0x14 }
  - { offset: 0x1E9CA, size: 0x8, addend: 0x0, symName: __ZNSt3__117__compressed_pairIPNS_6vectorINS_12basic_stringIcNS_11char_traitsIcEENS_9allocatorIcEEEENS5_IS7_EEEENS5_IS9_EEE5firstB8ne180100Ev, symObjAddr: 0x23C0, symBinAddr: 0x100002DE0, symSize: 0x24 }
  - { offset: 0x1E9F0, size: 0x8, addend: 0x0, symName: __ZNSt3__122__compressed_pair_elemIPNS_6vectorINS_12basic_stringIcNS_11char_traitsIcEENS_9allocatorIcEEEENS5_IS7_EEEELi0ELb0EE5__getB8ne180100Ev, symObjAddr: 0x23E4, symBinAddr: 0x100002E04, symSize: 0x14 }
  - { offset: 0x1EA31, size: 0x8, addend: 0x0, symName: __ZNSt3__16vectorINS0_INS_12basic_stringIcNS_11char_traitsIcEENS_9allocatorIcEEEENS4_IS6_EEEENS4_IS8_EEE21_ConstructTransactionC1B8ne180100ERSA_m, symObjAddr: 0x23F8, symBinAddr: 0x100002E18, symSize: 0x3C }
  - { offset: 0x1EA79, size: 0x8, addend: 0x0, symName: __ZNSt3__16vectorINS0_INS_12basic_stringIcNS_11char_traitsIcEENS_9allocatorIcEEEENS4_IS6_EEEENS4_IS8_EEE21_ConstructTransactionD1B8ne180100Ev, symObjAddr: 0x24B4, symBinAddr: 0x100002ED4, symSize: 0x2C }
  - { offset: 0x1EAA3, size: 0x8, addend: 0x0, symName: __ZNSt3__16vectorINS0_INS_12basic_stringIcNS_11char_traitsIcEENS_9allocatorIcEEEENS4_IS6_EEEENS4_IS8_EEE21_ConstructTransactionC2B8ne180100ERSA_m, symObjAddr: 0x24E0, symBinAddr: 0x100002F00, symSize: 0x4C }
  - { offset: 0x1EB0D, size: 0x8, addend: 0x0, symName: __ZNSt3__14pairIPNS_6vectorINS_12basic_stringIcNS_11char_traitsIcEENS_9allocatorIcEEEENS5_IS7_EEEESA_EC1B8ne180100ISA_SA_Li0EEEOT_OT0_, symObjAddr: 0x2718, symBinAddr: 0x100003138, symSize: 0x3C }
  - { offset: 0x1EB6B, size: 0x8, addend: 0x0, symName: __ZNSt3__14pairIPNS_6vectorINS_12basic_stringIcNS_11char_traitsIcEENS_9allocatorIcEEEENS5_IS7_EEEESA_EC2B8ne180100ISA_SA_Li0EEEOT_OT0_, symObjAddr: 0x2754, symBinAddr: 0x100003174, symSize: 0x34 }
  - { offset: 0x1EBC9, size: 0x8, addend: 0x0, symName: __ZNSt3__129_AllocatorDestroyRangeReverseINS_9allocatorINS_6vectorINS_12basic_stringIcNS_11char_traitsIcEENS1_IcEEEENS1_IS7_EEEEEEPS9_EC1B8ne180100ERSA_RSB_SE_, symObjAddr: 0x27D4, symBinAddr: 0x1000031F4, symSize: 0x44 }
  - { offset: 0x1EC20, size: 0x8, addend: 0x0, symName: __ZNSt3__116allocator_traitsINS_9allocatorINS_6vectorINS_12basic_stringIcNS_11char_traitsIcEENS1_IcEEEENS1_IS7_EEEEEEE9constructB8ne180100IS9_JRS9_EvEEvRSA_PT_DpOT0_, symObjAddr: 0x2818, symBinAddr: 0x100003238, symSize: 0x34 }
  - { offset: 0x1EC77, size: 0x8, addend: 0x0, symName: __ZNSt3__128__exception_guard_exceptionsINS_29_AllocatorDestroyRangeReverseINS_9allocatorINS_6vectorINS_12basic_stringIcNS_11char_traitsIcEENS2_IcEEEENS2_IS8_EEEEEEPSA_EEE10__completeB8ne180100Ev, symObjAddr: 0x2860, symBinAddr: 0x100003280, symSize: 0x1C }
  - { offset: 0x1EC9D, size: 0x8, addend: 0x0, symName: __ZNSt3__128__exception_guard_exceptionsINS_29_AllocatorDestroyRangeReverseINS_9allocatorINS_6vectorINS_12basic_stringIcNS_11char_traitsIcEENS2_IcEEEENS2_IS8_EEEEEEPSA_EEED1B8ne180100Ev, symObjAddr: 0x287C, symBinAddr: 0x10000329C, symSize: 0x2C }
  - { offset: 0x1ECC7, size: 0x8, addend: 0x0, symName: __ZNSt3__128__exception_guard_exceptionsINS_29_AllocatorDestroyRangeReverseINS_9allocatorINS_6vectorINS_12basic_stringIcNS_11char_traitsIcEENS2_IcEEEENS2_IS8_EEEEEEPSA_EEEC1B8ne180100ESD_, symObjAddr: 0x28A8, symBinAddr: 0x1000032C8, symSize: 0x34 }
  - { offset: 0x1ED00, size: 0x8, addend: 0x0, symName: __ZNSt3__128__exception_guard_exceptionsINS_29_AllocatorDestroyRangeReverseINS_9allocatorINS_6vectorINS_12basic_stringIcNS_11char_traitsIcEENS2_IcEEEENS2_IS8_EEEEEEPSA_EEEC2B8ne180100ESD_, symObjAddr: 0x28DC, symBinAddr: 0x1000032FC, symSize: 0x30 }
  - { offset: 0x1ED39, size: 0x8, addend: 0x0, symName: __ZNSt3__129_AllocatorDestroyRangeReverseINS_9allocatorINS_6vectorINS_12basic_stringIcNS_11char_traitsIcEENS1_IcEEEENS1_IS7_EEEEEEPS9_EC2B8ne180100ERSA_RSB_SE_, symObjAddr: 0x290C, symBinAddr: 0x10000332C, symSize: 0x38 }
  - { offset: 0x1ED90, size: 0x8, addend: 0x0, symName: __ZNSt3__19allocatorINS_6vectorINS_12basic_stringIcNS_11char_traitsIcEENS0_IcEEEENS0_IS6_EEEEE9constructB8ne180100IS8_JRS8_EEEvPT_DpOT0_, symObjAddr: 0x2944, symBinAddr: 0x100003364, symSize: 0x30 }
  - { offset: 0x1EDE6, size: 0x8, addend: 0x0, symName: __ZNSt3__128__exception_guard_exceptionsINS_29_AllocatorDestroyRangeReverseINS_9allocatorINS_6vectorINS_12basic_stringIcNS_11char_traitsIcEENS2_IcEEEENS2_IS8_EEEEEEPSA_EEED2B8ne180100Ev, symObjAddr: 0x2974, symBinAddr: 0x100003394, symSize: 0x50 }
  - { offset: 0x1EE10, size: 0x8, addend: 0x0, symName: __ZNKSt3__129_AllocatorDestroyRangeReverseINS_9allocatorINS_6vectorINS_12basic_stringIcNS_11char_traitsIcEENS1_IcEEEENS1_IS7_EEEEEEPS9_EclB8ne180100Ev, symObjAddr: 0x29C4, symBinAddr: 0x1000033E4, symSize: 0x68 }
  - { offset: 0x1EE36, size: 0x8, addend: 0x0, symName: __ZNSt3__116reverse_iteratorIPNS_6vectorINS_12basic_stringIcNS_11char_traitsIcEENS_9allocatorIcEEEENS5_IS7_EEEEEC1B8ne180100ESA_, symObjAddr: 0x2A9C, symBinAddr: 0x1000034BC, symSize: 0x34 }
  - { offset: 0x1EE6E, size: 0x8, addend: 0x0, symName: __ZNSt3__116allocator_traitsINS_9allocatorINS_6vectorINS_12basic_stringIcNS_11char_traitsIcEENS1_IcEEEENS1_IS7_EEEEEEE7destroyB8ne180100IS9_vEEvRSA_PT_, symObjAddr: 0x2B18, symBinAddr: 0x100003538, symSize: 0x2C }
  - { offset: 0x1EEAB, size: 0x8, addend: 0x0, symName: __ZNSt3__116reverse_iteratorIPNS_6vectorINS_12basic_stringIcNS_11char_traitsIcEENS_9allocatorIcEEEENS5_IS7_EEEEEppB8ne180100Ev, symObjAddr: 0x2B68, symBinAddr: 0x100003588, symSize: 0x20 }
  - { offset: 0x1EED1, size: 0x8, addend: 0x0, symName: __ZNKSt3__116reverse_iteratorIPNS_6vectorINS_12basic_stringIcNS_11char_traitsIcEENS_9allocatorIcEEEENS5_IS7_EEEEE4baseB8ne180100Ev, symObjAddr: 0x2B88, symBinAddr: 0x1000035A8, symSize: 0x18 }
  - { offset: 0x1EEF7, size: 0x8, addend: 0x0, symName: __ZNSt3__19allocatorINS_6vectorINS_12basic_stringIcNS_11char_traitsIcEENS0_IcEEEENS0_IS6_EEEEE7destroyB8ne180100EPS8_, symObjAddr: 0x2BA0, symBinAddr: 0x1000035C0, symSize: 0x28 }
  - { offset: 0x1EF31, size: 0x8, addend: 0x0, symName: __ZNSt3__119__to_address_helperINS_16reverse_iteratorIPNS_6vectorINS_12basic_stringIcNS_11char_traitsIcEENS_9allocatorIcEEEENS6_IS8_EEEEEEvE6__callB8ne180100ERKSC_, symObjAddr: 0x2BC8, symBinAddr: 0x1000035E8, symSize: 0x38 }
  - { offset: 0x1EF54, size: 0x8, addend: 0x0, symName: __ZNKSt3__116reverse_iteratorIPNS_6vectorINS_12basic_stringIcNS_11char_traitsIcEENS_9allocatorIcEEEENS5_IS7_EEEEEptB8ne180100Ev, symObjAddr: 0x2C00, symBinAddr: 0x100003620, symSize: 0x24 }
  - { offset: 0x1EF7A, size: 0x8, addend: 0x0, symName: __ZNKSt3__116reverse_iteratorIPNS_6vectorINS_12basic_stringIcNS_11char_traitsIcEENS_9allocatorIcEEEENS5_IS7_EEEEEdeB8ne180100Ev, symObjAddr: 0x2C24, symBinAddr: 0x100003644, symSize: 0x28 }
  - { offset: 0x1EFAE, size: 0x8, addend: 0x0, symName: __ZNSt3__116reverse_iteratorIPNS_6vectorINS_12basic_stringIcNS_11char_traitsIcEENS_9allocatorIcEEEENS5_IS7_EEEEEC2B8ne180100ESA_, symObjAddr: 0x2C4C, symBinAddr: 0x10000366C, symSize: 0x28 }
  - { offset: 0x1EFE6, size: 0x8, addend: 0x0, symName: __ZNSt3__118__unwrap_iter_implIPNS_6vectorINS_12basic_stringIcNS_11char_traitsIcEENS_9allocatorIcEEEENS5_IS7_EEEELb1EE8__unwrapB8ne180100ESA_, symObjAddr: 0x2C74, symBinAddr: 0x100003694, symSize: 0x24 }
  - { offset: 0x1F009, size: 0x8, addend: 0x0, symName: __ZNSt3__118__unwrap_iter_implIPNS_6vectorINS_12basic_stringIcNS_11char_traitsIcEENS_9allocatorIcEEEENS5_IS7_EEEELb1EE8__rewrapB8ne180100ESA_SA_, symObjAddr: 0x2C98, symBinAddr: 0x1000036B8, symSize: 0x58 }
  - { offset: 0x1F03A, size: 0x8, addend: 0x0, symName: __ZNSt3__16vectorINS0_INS_12basic_stringIcNS_11char_traitsIcEENS_9allocatorIcEEEENS4_IS6_EEEENS4_IS8_EEE21_ConstructTransactionD2B8ne180100Ev, symObjAddr: 0x2CF0, symBinAddr: 0x100003710, symSize: 0x20 }
  - { offset: 0x1F064, size: 0x8, addend: 0x0, symName: __ZNSt3__128__exception_guard_exceptionsINS_6vectorINS1_INS_12basic_stringIcNS_11char_traitsIcEENS_9allocatorIcEEEENS5_IS7_EEEENS5_IS9_EEE16__destroy_vectorEED2B8ne180100Ev, symObjAddr: 0x2D10, symBinAddr: 0x100003730, symSize: 0x50 }
  - { offset: 0x1F08E, size: 0x8, addend: 0x0, symName: __ZNSt3__16vectorINS0_INS_12basic_stringIcNS_11char_traitsIcEENS_9allocatorIcEEEENS4_IS6_EEEENS4_IS8_EEE16__destroy_vectorclB8ne180100Ev, symObjAddr: 0x2D60, symBinAddr: 0x100003780, symSize: 0x90 }
  - { offset: 0x1F0B4, size: 0x8, addend: 0x0, symName: __ZNSt3__16vectorINS0_INS_12basic_stringIcNS_11char_traitsIcEENS_9allocatorIcEEEENS4_IS6_EEEENS4_IS8_EEE7__clearB8ne180100Ev, symObjAddr: 0x2DF0, symBinAddr: 0x100003810, symSize: 0x28 }
  - { offset: 0x1F0DA, size: 0x8, addend: 0x0, symName: __ZNKSt3__16vectorINS0_INS_12basic_stringIcNS_11char_traitsIcEENS_9allocatorIcEEEENS4_IS6_EEEENS4_IS8_EEE17__annotate_deleteB8ne180100Ev, symObjAddr: 0x2E18, symBinAddr: 0x100003838, symSize: 0x10 }
  - { offset: 0x1F100, size: 0x8, addend: 0x0, symName: __ZNSt3__116allocator_traitsINS_9allocatorINS_6vectorINS_12basic_stringIcNS_11char_traitsIcEENS1_IcEEEENS1_IS7_EEEEEEE10deallocateB8ne180100ERSA_PS9_m, symObjAddr: 0x2E28, symBinAddr: 0x100003848, symSize: 0x34 }
  - { offset: 0x1F142, size: 0x8, addend: 0x0, symName: __ZNKSt3__16vectorINS0_INS_12basic_stringIcNS_11char_traitsIcEENS_9allocatorIcEEEENS4_IS6_EEEENS4_IS8_EEE8capacityB8ne180100Ev, symObjAddr: 0x2E5C, symBinAddr: 0x10000387C, symSize: 0x40 }
  - { offset: 0x1F168, size: 0x8, addend: 0x0, symName: __ZNSt3__16vectorINS0_INS_12basic_stringIcNS_11char_traitsIcEENS_9allocatorIcEEEENS4_IS6_EEEENS4_IS8_EEE22__base_destruct_at_endB8ne180100EPS8_, symObjAddr: 0x2E9C, symBinAddr: 0x1000038BC, symSize: 0x8C }
  - { offset: 0x1F1AC, size: 0x8, addend: 0x0, symName: __ZNSt3__19allocatorINS_6vectorINS_12basic_stringIcNS_11char_traitsIcEENS0_IcEEEENS0_IS6_EEEEE10deallocateB8ne180100EPS8_m, symObjAddr: 0x2F28, symBinAddr: 0x100003948, symSize: 0x44 }
  - { offset: 0x1F1EE, size: 0x8, addend: 0x0, symName: __ZNKSt3__16vectorINS0_INS_12basic_stringIcNS_11char_traitsIcEENS_9allocatorIcEEEENS4_IS6_EEEENS4_IS8_EEE9__end_capB8ne180100Ev, symObjAddr: 0x3074, symBinAddr: 0x100003A94, symSize: 0x28 }
  - { offset: 0x1F214, size: 0x8, addend: 0x0, symName: __ZNKSt3__117__compressed_pairIPNS_6vectorINS_12basic_stringIcNS_11char_traitsIcEENS_9allocatorIcEEEENS5_IS7_EEEENS5_IS9_EEE5firstB8ne180100Ev, symObjAddr: 0x309C, symBinAddr: 0x100003ABC, symSize: 0x24 }
  - { offset: 0x1F23A, size: 0x8, addend: 0x0, symName: __ZNKSt3__122__compressed_pair_elemIPNS_6vectorINS_12basic_stringIcNS_11char_traitsIcEENS_9allocatorIcEEEENS5_IS7_EEEELi0ELb0EE5__getB8ne180100Ev, symObjAddr: 0x30C0, symBinAddr: 0x100003AE0, symSize: 0x14 }
  - { offset: 0x1F260, size: 0x8, addend: 0x0, symName: __ZNSt3__114basic_ifstreamIcNS_11char_traitsIcEEED2Ev, symObjAddr: 0x30D4, symBinAddr: 0x100003AF4, symSize: 0x64 }
  - { offset: 0x1F29A, size: 0x8, addend: 0x0, symName: __ZTv0_n24_NSt3__114basic_ifstreamIcNS_11char_traitsIcEEED1Ev, symObjAddr: 0x3138, symBinAddr: 0x100003B58, symSize: 0x28 }
  - { offset: 0x1F2B1, size: 0x8, addend: 0x0, symName: __ZNKSt3__111__wrap_iterIPKNS_6vectorINS_12basic_stringIcNS_11char_traitsIcEENS_9allocatorIcEEEENS5_IS7_EEEEE4baseB8ne180100Ev, symObjAddr: 0x31A8, symBinAddr: 0x100003BC8, symSize: 0x18 }
  - { offset: 0x1F2D7, size: 0x8, addend: 0x0, symName: __ZNSt3__110__get_pairILm0EE3getB8ne180100INS_6vectorINS3_INS_12basic_stringIcNS_11char_traitsIcEENS_9allocatorIcEEEENS7_IS9_EEEENS7_ISB_EEEESD_EEOT_ONS_4pairISE_T0_EE, symObjAddr: 0x31C0, symBinAddr: 0x100003BE0, symSize: 0x14 }
  - { offset: 0x1F30D, size: 0x8, addend: 0x0, symName: __ZNSt3__110__get_pairILm1EE3getB8ne180100INS_6vectorINS3_INS_12basic_stringIcNS_11char_traitsIcEENS_9allocatorIcEEEENS7_IS9_EEEENS7_ISB_EEEESD_EEOT0_ONS_4pairIT_SE_EE, symObjAddr: 0x31D4, symBinAddr: 0x100003BF4, symSize: 0x18 }
  - { offset: 0x1F343, size: 0x8, addend: 0x0, symName: __ZNKSt3__111__wrap_iterIPNS_6vectorIiNS_9allocatorIiEEEEE4baseB8ne180100Ev, symObjAddr: 0x3234, symBinAddr: 0x100003C54, symSize: 0x18 }
  - { offset: 0x1F369, size: 0x8, addend: 0x0, symName: __ZNSt3__14pairINS_6vectorIiNS_9allocatorIiEEEES4_EC2B8ne180100ILb1ELi0EEERKS4_S8_, symObjAddr: 0x324C, symBinAddr: 0x100003C6C, symSize: 0x70 }
  - { offset: 0x1F3BF, size: 0x8, addend: 0x0, symName: __ZNSt3__16vectorIiNS_9allocatorIiEEEC1ERKS3_, symObjAddr: 0x32BC, symBinAddr: 0x100003CDC, symSize: 0x34 }
  - { offset: 0x1F3FA, size: 0x8, addend: 0x0, symName: __ZNSt3__16vectorIiNS_9allocatorIiEEEC2ERKS3_, symObjAddr: 0x32F0, symBinAddr: 0x100003D10, symSize: 0x94 }
  - { offset: 0x1F440, size: 0x8, addend: 0x0, symName: __ZNSt3__116allocator_traitsINS_9allocatorIiEEE37select_on_container_copy_constructionB8ne180100IS2_vvEES2_RKS2_, symObjAddr: 0x3384, symBinAddr: 0x100003DA4, symSize: 0x10 }
  - { offset: 0x1F46F, size: 0x8, addend: 0x0, symName: __ZNKSt3__16vectorIiNS_9allocatorIiEEE7__allocB8ne180100Ev, symObjAddr: 0x3394, symBinAddr: 0x100003DB4, symSize: 0x28 }
  - { offset: 0x1F49B, size: 0x8, addend: 0x0, symName: __ZNSt3__117__compressed_pairIPiNS_9allocatorIiEEEC1B8ne180100IDnS3_EEOT_OT0_, symObjAddr: 0x33BC, symBinAddr: 0x100003DDC, symSize: 0x3C }
  - { offset: 0x1F4F3, size: 0x8, addend: 0x0, symName: __ZNSt3__16vectorIiNS_9allocatorIiEEE16__init_with_sizeB8ne180100IPiS5_EEvT_T0_m, symObjAddr: 0x33F8, symBinAddr: 0x100003E18, symSize: 0xB8 }
  - { offset: 0x1F567, size: 0x8, addend: 0x0, symName: __ZNKSt3__16vectorIiNS_9allocatorIiEEE4sizeB8ne180100Ev, symObjAddr: 0x34B0, symBinAddr: 0x100003ED0, symSize: 0x28 }
  - { offset: 0x1F58D, size: 0x8, addend: 0x0, symName: __ZNKSt3__117__compressed_pairIPiNS_9allocatorIiEEE6secondB8ne180100Ev, symObjAddr: 0x34D8, symBinAddr: 0x100003EF8, symSize: 0x24 }
  - { offset: 0x1F5B3, size: 0x8, addend: 0x0, symName: __ZNKSt3__122__compressed_pair_elemINS_9allocatorIiEELi1ELb1EE5__getB8ne180100Ev, symObjAddr: 0x34FC, symBinAddr: 0x100003F1C, symSize: 0x14 }
  - { offset: 0x1F5D9, size: 0x8, addend: 0x0, symName: __ZNSt3__117__compressed_pairIPiNS_9allocatorIiEEEC2B8ne180100IDnS3_EEOT_OT0_, symObjAddr: 0x3510, symBinAddr: 0x100003F30, symSize: 0x44 }
  - { offset: 0x1F631, size: 0x8, addend: 0x0, symName: __ZNSt3__122__compressed_pair_elemIPiLi0ELb0EEC2B8ne180100IDnvEEOT_, symObjAddr: 0x3554, symBinAddr: 0x100003F74, symSize: 0x1C }
  - { offset: 0x1F673, size: 0x8, addend: 0x0, symName: __ZNSt3__122__compressed_pair_elemINS_9allocatorIiEELi1ELb1EEC2B8ne180100IS2_vEEOT_, symObjAddr: 0x3570, symBinAddr: 0x100003F90, symSize: 0x18 }
  - { offset: 0x1F6B5, size: 0x8, addend: 0x0, symName: __ZNSt3__16vectorIiNS_9allocatorIiEEE16__destroy_vectorC1B8ne180100ERS3_, symObjAddr: 0x35C8, symBinAddr: 0x100003FE8, symSize: 0x34 }
  - { offset: 0x1F6EE, size: 0x8, addend: 0x0, symName: __ZNSt3__16vectorIiNS_9allocatorIiEEE11__vallocateB8ne180100Em, symObjAddr: 0x35FC, symBinAddr: 0x10000401C, symSize: 0xAC }
  - { offset: 0x1F732, size: 0x8, addend: 0x0, symName: __ZNSt3__16vectorIiNS_9allocatorIiEEE18__construct_at_endIPiS5_EEvT_T0_m, symObjAddr: 0x36A8, symBinAddr: 0x1000040C8, symSize: 0x8C }
  - { offset: 0x1F7A8, size: 0x8, addend: 0x0, symName: __ZNSt3__128__exception_guard_exceptionsINS_6vectorIiNS_9allocatorIiEEE16__destroy_vectorEE10__completeB8ne180100Ev, symObjAddr: 0x3734, symBinAddr: 0x100004154, symSize: 0x1C }
  - { offset: 0x1F7CE, size: 0x8, addend: 0x0, symName: __ZNSt3__128__exception_guard_exceptionsINS_6vectorIiNS_9allocatorIiEEE16__destroy_vectorEED1B8ne180100Ev, symObjAddr: 0x3750, symBinAddr: 0x100004170, symSize: 0x2C }
  - { offset: 0x1F7F8, size: 0x8, addend: 0x0, symName: __ZNSt3__128__exception_guard_exceptionsINS_6vectorIiNS_9allocatorIiEEE16__destroy_vectorEEC1B8ne180100ES5_, symObjAddr: 0x377C, symBinAddr: 0x10000419C, symSize: 0x34 }
  - { offset: 0x1F830, size: 0x8, addend: 0x0, symName: __ZNSt3__128__exception_guard_exceptionsINS_6vectorIiNS_9allocatorIiEEE16__destroy_vectorEEC2B8ne180100ES5_, symObjAddr: 0x37B0, symBinAddr: 0x1000041D0, symSize: 0x24 }
  - { offset: 0x1F868, size: 0x8, addend: 0x0, symName: __ZNSt3__16vectorIiNS_9allocatorIiEEE16__destroy_vectorC2B8ne180100ERS3_, symObjAddr: 0x37D4, symBinAddr: 0x1000041F4, symSize: 0x20 }
  - { offset: 0x1F8A1, size: 0x8, addend: 0x0, symName: __ZNKSt3__16vectorIiNS_9allocatorIiEEE8max_sizeEv, symObjAddr: 0x37F4, symBinAddr: 0x100004214, symSize: 0x60 }
  - { offset: 0x1F8C9, size: 0x8, addend: 0x0, symName: __ZNKSt3__16vectorIiNS_9allocatorIiEEE20__throw_length_errorB8ne180100Ev, symObjAddr: 0x3854, symBinAddr: 0x100004274, symSize: 0x1C }
  - { offset: 0x1F8EF, size: 0x8, addend: 0x0, symName: __ZNSt3__16vectorIiNS_9allocatorIiEEE7__allocB8ne180100Ev, symObjAddr: 0x38B0, symBinAddr: 0x1000042D0, symSize: 0x28 }
  - { offset: 0x1F915, size: 0x8, addend: 0x0, symName: __ZNSt3__16vectorIiNS_9allocatorIiEEE9__end_capB8ne180100Ev, symObjAddr: 0x38D8, symBinAddr: 0x1000042F8, symSize: 0x28 }
  - { offset: 0x1F93B, size: 0x8, addend: 0x0, symName: __ZNKSt3__16vectorIiNS_9allocatorIiEEE14__annotate_newB8ne180100Em, symObjAddr: 0x3900, symBinAddr: 0x100004320, symSize: 0x14 }
  - { offset: 0x1F970, size: 0x8, addend: 0x0, symName: __ZNSt3__116allocator_traitsINS_9allocatorIiEEE8max_sizeB8ne180100IS2_vEEmRKS2_, symObjAddr: 0x3914, symBinAddr: 0x100004334, symSize: 0x24 }
  - { offset: 0x1F99E, size: 0x8, addend: 0x0, symName: __ZNKSt3__19allocatorIiE8max_sizeB8ne180100Ev, symObjAddr: 0x3938, symBinAddr: 0x100004358, symSize: 0x14 }
  - { offset: 0x1F9C4, size: 0x8, addend: 0x0, symName: __ZNSt3__19allocatorIiE8allocateB8ne180100Em, symObjAddr: 0x394C, symBinAddr: 0x10000436C, symSize: 0x58 }
  - { offset: 0x1F9F8, size: 0x8, addend: 0x0, symName: __ZNSt3__117__compressed_pairIPiNS_9allocatorIiEEE6secondB8ne180100Ev, symObjAddr: 0x39A4, symBinAddr: 0x1000043C4, symSize: 0x24 }
  - { offset: 0x1FA1E, size: 0x8, addend: 0x0, symName: __ZNSt3__122__compressed_pair_elemINS_9allocatorIiEELi1ELb1EE5__getB8ne180100Ev, symObjAddr: 0x39C8, symBinAddr: 0x1000043E8, symSize: 0x14 }
  - { offset: 0x1FA44, size: 0x8, addend: 0x0, symName: __ZNSt3__117__compressed_pairIPiNS_9allocatorIiEEE5firstB8ne180100Ev, symObjAddr: 0x39DC, symBinAddr: 0x1000043FC, symSize: 0x24 }
  - { offset: 0x1FA6A, size: 0x8, addend: 0x0, symName: __ZNSt3__122__compressed_pair_elemIPiLi0ELb0EE5__getB8ne180100Ev, symObjAddr: 0x3A00, symBinAddr: 0x100004420, symSize: 0x14 }
  - { offset: 0x1FAAB, size: 0x8, addend: 0x0, symName: __ZNSt3__16vectorIiNS_9allocatorIiEEE21_ConstructTransactionC1B8ne180100ERS3_m, symObjAddr: 0x3A14, symBinAddr: 0x100004434, symSize: 0x3C }
  - { offset: 0x1FAF3, size: 0x8, addend: 0x0, symName: __ZNSt3__16vectorIiNS_9allocatorIiEEE21_ConstructTransactionD1B8ne180100Ev, symObjAddr: 0x3AD0, symBinAddr: 0x1000044F0, symSize: 0x2C }
  - { offset: 0x1FB1D, size: 0x8, addend: 0x0, symName: __ZNSt3__16vectorIiNS_9allocatorIiEEE21_ConstructTransactionC2B8ne180100ERS3_m, symObjAddr: 0x3AFC, symBinAddr: 0x10000451C, symSize: 0x44 }
  - { offset: 0x1FB87, size: 0x8, addend: 0x0, symName: __ZNSt3__14pairIPiS1_EC1B8ne180100IS1_S1_Li0EEEOT_OT0_, symObjAddr: 0x3C70, symBinAddr: 0x100004690, symSize: 0x3C }
  - { offset: 0x1FBE5, size: 0x8, addend: 0x0, symName: __ZNSt3__14pairIPiS1_EC2B8ne180100IS1_S1_Li0EEEOT_OT0_, symObjAddr: 0x3CAC, symBinAddr: 0x1000046CC, symSize: 0x34 }
  - { offset: 0x1FC4D, size: 0x8, addend: 0x0, symName: __ZNKSt3__114__copy_trivialclB8ne180100IiiLi0EEENS_4pairIPT_PT0_EES4_S4_S6_, symObjAddr: 0x3E5C, symBinAddr: 0x10000487C, symSize: 0x48 }
  - { offset: 0x1FCB5, size: 0x8, addend: 0x0, symName: __ZNSt3__14pairIPiS1_EC1B8ne180100IRS1_S1_Li0EEEOT_OT0_, symObjAddr: 0x3FEC, symBinAddr: 0x100004A0C, symSize: 0x3C }
  - { offset: 0x1FD13, size: 0x8, addend: 0x0, symName: __ZNSt3__14pairIPiS1_EC2B8ne180100IRS1_S1_Li0EEEOT_OT0_, symObjAddr: 0x4028, symBinAddr: 0x100004A48, symSize: 0x34 }
  - { offset: 0x1FD71, size: 0x8, addend: 0x0, symName: __ZNSt3__118__unwrap_iter_implIPiLb1EE8__unwrapB8ne180100ES1_, symObjAddr: 0x405C, symBinAddr: 0x100004A7C, symSize: 0x24 }
  - { offset: 0x1FD94, size: 0x8, addend: 0x0, symName: __ZNSt3__118__unwrap_iter_implIPiLb1EE8__rewrapB8ne180100ES1_S1_, symObjAddr: 0x4094, symBinAddr: 0x100004AB4, symSize: 0x50 }
  - { offset: 0x1FDC5, size: 0x8, addend: 0x0, symName: __ZNSt3__16vectorIiNS_9allocatorIiEEE21_ConstructTransactionD2B8ne180100Ev, symObjAddr: 0x40E4, symBinAddr: 0x100004B04, symSize: 0x20 }
  - { offset: 0x1FDEF, size: 0x8, addend: 0x0, symName: __ZNSt3__128__exception_guard_exceptionsINS_6vectorIiNS_9allocatorIiEEE16__destroy_vectorEED2B8ne180100Ev, symObjAddr: 0x4104, symBinAddr: 0x100004B24, symSize: 0x50 }
  - { offset: 0x1FE19, size: 0x8, addend: 0x0, symName: __ZNSt3__16vectorIiNS_9allocatorIiEEE16__destroy_vectorclB8ne180100Ev, symObjAddr: 0x4154, symBinAddr: 0x100004B74, symSize: 0x90 }
  - { offset: 0x1FE3F, size: 0x8, addend: 0x0, symName: __ZNSt3__16vectorIiNS_9allocatorIiEEE7__clearB8ne180100Ev, symObjAddr: 0x41E4, symBinAddr: 0x100004C04, symSize: 0x28 }
  - { offset: 0x1FE65, size: 0x8, addend: 0x0, symName: __ZNKSt3__16vectorIiNS_9allocatorIiEEE17__annotate_deleteB8ne180100Ev, symObjAddr: 0x420C, symBinAddr: 0x100004C2C, symSize: 0x10 }
  - { offset: 0x1FE8B, size: 0x8, addend: 0x0, symName: __ZNSt3__116allocator_traitsINS_9allocatorIiEEE10deallocateB8ne180100ERS2_Pim, symObjAddr: 0x421C, symBinAddr: 0x100004C3C, symSize: 0x34 }
  - { offset: 0x1FECD, size: 0x8, addend: 0x0, symName: __ZNKSt3__16vectorIiNS_9allocatorIiEEE8capacityB8ne180100Ev, symObjAddr: 0x4250, symBinAddr: 0x100004C70, symSize: 0x40 }
  - { offset: 0x1FEF3, size: 0x8, addend: 0x0, symName: __ZNSt3__16vectorIiNS_9allocatorIiEEE22__base_destruct_at_endB8ne180100EPi, symObjAddr: 0x4290, symBinAddr: 0x100004CB0, symSize: 0x8C }
  - { offset: 0x1FF37, size: 0x8, addend: 0x0, symName: __ZNSt3__116allocator_traitsINS_9allocatorIiEEE7destroyB8ne180100IivEEvRS2_PT_, symObjAddr: 0x431C, symBinAddr: 0x100004D3C, symSize: 0x2C }
  - { offset: 0x1FF74, size: 0x8, addend: 0x0, symName: __ZNSt3__19allocatorIiE7destroyB8ne180100EPi, symObjAddr: 0x4348, symBinAddr: 0x100004D68, symSize: 0x14 }
  - { offset: 0x1FFA8, size: 0x8, addend: 0x0, symName: __ZNSt3__19allocatorIiE10deallocateB8ne180100EPim, symObjAddr: 0x435C, symBinAddr: 0x100004D7C, symSize: 0x40 }
  - { offset: 0x1FFEA, size: 0x8, addend: 0x0, symName: __ZNKSt3__16vectorIiNS_9allocatorIiEEE9__end_capB8ne180100Ev, symObjAddr: 0x439C, symBinAddr: 0x100004DBC, symSize: 0x28 }
  - { offset: 0x20010, size: 0x8, addend: 0x0, symName: __ZNKSt3__117__compressed_pairIPiNS_9allocatorIiEEE5firstB8ne180100Ev, symObjAddr: 0x43C4, symBinAddr: 0x100004DE4, symSize: 0x24 }
  - { offset: 0x20036, size: 0x8, addend: 0x0, symName: __ZNKSt3__122__compressed_pair_elemIPiLi0ELb0EE5__getB8ne180100Ev, symObjAddr: 0x43E8, symBinAddr: 0x100004E08, symSize: 0x14 }
  - { offset: 0x2005C, size: 0x8, addend: 0x0, symName: __ZNSt3__14pairINS_6vectorIiNS_9allocatorIiEEEES4_ED2Ev, symObjAddr: 0x43FC, symBinAddr: 0x100004E1C, symSize: 0x38 }
  - { offset: 0x20088, size: 0x8, addend: 0x0, symName: __ZNSt3__14pairINS_6vectorINS1_INS_12basic_stringIcNS_11char_traitsIcEENS_9allocatorIcEEEENS5_IS7_EEEENS5_IS9_EEEESB_ED2Ev, symObjAddr: 0x4434, symBinAddr: 0x100004E54, symSize: 0x38 }
  - { offset: 0x200B4, size: 0x8, addend: 0x0, symName: __ZNSt3__112basic_stringIcNS_11char_traitsIcEENS_9allocatorIcEEEC2B8ne180100Ev, symObjAddr: 0x446C, symBinAddr: 0x100004E8C, symSize: 0x48 }
  - { offset: 0x200EA, size: 0x8, addend: 0x0, symName: __ZNSt3__117__compressed_pairINS_12basic_stringIcNS_11char_traitsIcEENS_9allocatorIcEEE5__repES5_EC1B8ne180100INS_16__value_init_tagENS_18__default_init_tagEEEOT_OT0_, symObjAddr: 0x44B4, symBinAddr: 0x100004ED4, symSize: 0x3C }
  - { offset: 0x20142, size: 0x8, addend: 0x0, symName: __ZNKSt3__112basic_stringIcNS_11char_traitsIcEENS_9allocatorIcEEE14__annotate_newB8ne180100Em, symObjAddr: 0x44F0, symBinAddr: 0x100004F10, symSize: 0x14 }
  - { offset: 0x20177, size: 0x8, addend: 0x0, symName: __ZNSt3__117__compressed_pairINS_12basic_stringIcNS_11char_traitsIcEENS_9allocatorIcEEE5__repES5_EC2B8ne180100INS_16__value_init_tagENS_18__default_init_tagEEEOT_OT0_, symObjAddr: 0x4504, symBinAddr: 0x100004F24, symSize: 0x3C }
  - { offset: 0x201CF, size: 0x8, addend: 0x0, symName: __ZNSt3__122__compressed_pair_elemINS_12basic_stringIcNS_11char_traitsIcEENS_9allocatorIcEEE5__repELi0ELb0EEC2B8ne180100ENS_16__value_init_tagE, symObjAddr: 0x4540, symBinAddr: 0x100004F60, symSize: 0x20 }
  - { offset: 0x20203, size: 0x8, addend: 0x0, symName: __ZNSt3__122__compressed_pair_elemINS_9allocatorIcEELi1ELb1EEC2B8ne180100ENS_18__default_init_tagE, symObjAddr: 0x4560, symBinAddr: 0x100004F80, symSize: 0x2C }
  - { offset: 0x20237, size: 0x8, addend: 0x0, symName: __ZNSt3__19allocatorIcEC2B8ne180100Ev, symObjAddr: 0x458C, symBinAddr: 0x100004FAC, symSize: 0x2C }
  - { offset: 0x20261, size: 0x8, addend: 0x0, symName: __ZNSt3__116__non_trivial_ifILb1ENS_9allocatorIcEEEC2B8ne180100Ev, symObjAddr: 0x45B8, symBinAddr: 0x100004FD8, symSize: 0x14 }
  - { offset: 0x2028B, size: 0x8, addend: 0x0, symName: __ZNSt3__19basic_iosIcNS_11char_traitsIcEEEC2B8ne180100Ev, symObjAddr: 0x45CC, symBinAddr: 0x100004FEC, symSize: 0x3C }
  - { offset: 0x202B5, size: 0x8, addend: 0x0, symName: __ZNSt3__113basic_istreamIcNS_11char_traitsIcEEEC2B8ne180100EPNS_15basic_streambufIcS2_EE, symObjAddr: 0x4608, symBinAddr: 0x100005028, symSize: 0x64 }
  - { offset: 0x202FA, size: 0x8, addend: 0x0, symName: __ZNSt3__113basic_filebufIcNS_11char_traitsIcEEE4openERKNS_12basic_stringIcS2_NS_9allocatorIcEEEEj, symObjAddr: 0x466C, symBinAddr: 0x10000508C, symSize: 0x44 }
  - { offset: 0x20340, size: 0x8, addend: 0x0, symName: __ZNSt3__19basic_iosIcNS_11char_traitsIcEEE8setstateB8ne180100Ej, symObjAddr: 0x46B0, symBinAddr: 0x1000050D0, symSize: 0x2C }
  - { offset: 0x20375, size: 0x8, addend: 0x0, symName: __ZNSt3__18ios_baseC2B8ne180100Ev, symObjAddr: 0x46DC, symBinAddr: 0x1000050FC, symSize: 0x24 }
  - { offset: 0x2039F, size: 0x8, addend: 0x0, symName: __ZNSt3__19basic_iosIcNS_11char_traitsIcEEE4initB8ne180100EPNS_15basic_streambufIcS2_EE, symObjAddr: 0x4700, symBinAddr: 0x100005120, symSize: 0x44 }
  - { offset: 0x203D6, size: 0x8, addend: 0x0, symName: __ZNSt3__111char_traitsIcE3eofB8ne180100Ev, symObjAddr: 0x4744, symBinAddr: 0x100005164, symSize: 0x8 }
  - { offset: 0x203EA, size: 0x8, addend: 0x0, symName: __ZNKSt3__112basic_stringIcNS_11char_traitsIcEENS_9allocatorIcEEE5c_strB8ne180100Ev, symObjAddr: 0x474C, symBinAddr: 0x10000516C, symSize: 0x24 }
  - { offset: 0x20410, size: 0x8, addend: 0x0, symName: __ZNKSt3__112basic_stringIcNS_11char_traitsIcEENS_9allocatorIcEEE4dataB8ne180100Ev, symObjAddr: 0x4770, symBinAddr: 0x100005190, symSize: 0x28 }
  - { offset: 0x20436, size: 0x8, addend: 0x0, symName: __ZNKSt3__112basic_stringIcNS_11char_traitsIcEENS_9allocatorIcEEE13__get_pointerB8ne180100Ev, symObjAddr: 0x47AC, symBinAddr: 0x1000051CC, symSize: 0x54 }
  - { offset: 0x2045C, size: 0x8, addend: 0x0, symName: __ZNKSt3__112basic_stringIcNS_11char_traitsIcEENS_9allocatorIcEEE9__is_longB8ne180100Ev, symObjAddr: 0x4800, symBinAddr: 0x100005220, symSize: 0x38 }
  - { offset: 0x20482, size: 0x8, addend: 0x0, symName: __ZNKSt3__112basic_stringIcNS_11char_traitsIcEENS_9allocatorIcEEE18__get_long_pointerB8ne180100Ev, symObjAddr: 0x4838, symBinAddr: 0x100005258, symSize: 0x28 }
  - { offset: 0x204A8, size: 0x8, addend: 0x0, symName: __ZNKSt3__112basic_stringIcNS_11char_traitsIcEENS_9allocatorIcEEE19__get_short_pointerB8ne180100Ev, symObjAddr: 0x4860, symBinAddr: 0x100005280, symSize: 0x28 }
  - { offset: 0x204CE, size: 0x8, addend: 0x0, symName: __ZNKSt3__117__compressed_pairINS_12basic_stringIcNS_11char_traitsIcEENS_9allocatorIcEEE5__repES5_E5firstB8ne180100Ev, symObjAddr: 0x4888, symBinAddr: 0x1000052A8, symSize: 0x24 }
  - { offset: 0x204F4, size: 0x8, addend: 0x0, symName: __ZNKSt3__122__compressed_pair_elemINS_12basic_stringIcNS_11char_traitsIcEENS_9allocatorIcEEE5__repELi0ELb0EE5__getB8ne180100Ev, symObjAddr: 0x48AC, symBinAddr: 0x1000052CC, symSize: 0x14 }
  - { offset: 0x2051A, size: 0x8, addend: 0x0, symName: __ZNSt3__114pointer_traitsIPKcE10pointer_toB8ne180100ERS1_, symObjAddr: 0x48C0, symBinAddr: 0x1000052E0, symSize: 0x14 }
  - { offset: 0x2053D, size: 0x8, addend: 0x0, symName: __ZNSt3__18ios_base8setstateB8ne180100Ej, symObjAddr: 0x48D4, symBinAddr: 0x1000052F4, symSize: 0x34 }
  - { offset: 0x20574, size: 0x8, addend: 0x0, symName: __ZNSt3__16vectorINS0_INS_12basic_stringIcNS_11char_traitsIcEENS_9allocatorIcEEEENS4_IS6_EEEENS4_IS8_EEEC2B8ne180100Ev, symObjAddr: 0x4908, symBinAddr: 0x100005328, symSize: 0x4C }
  - { offset: 0x2059E, size: 0x8, addend: 0x0, symName: __ZNSt3__117__compressed_pairIPNS_6vectorINS_12basic_stringIcNS_11char_traitsIcEENS_9allocatorIcEEEENS5_IS7_EEEENS5_IS9_EEEC1B8ne180100IDnNS_18__default_init_tagEEEOT_OT0_, symObjAddr: 0x4954, symBinAddr: 0x100005374, symSize: 0x3C }
  - { offset: 0x205F6, size: 0x8, addend: 0x0, symName: __ZNSt3__117__compressed_pairIPNS_6vectorINS_12basic_stringIcNS_11char_traitsIcEENS_9allocatorIcEEEENS5_IS7_EEEENS5_IS9_EEEC2B8ne180100IDnNS_18__default_init_tagEEEOT_OT0_, symObjAddr: 0x4990, symBinAddr: 0x1000053B0, symSize: 0x40 }
  - { offset: 0x2064E, size: 0x8, addend: 0x0, symName: __ZNSt3__122__compressed_pair_elemINS_9allocatorINS_6vectorINS_12basic_stringIcNS_11char_traitsIcEENS1_IcEEEENS1_IS7_EEEEEELi1ELb1EEC2B8ne180100ENS_18__default_init_tagE, symObjAddr: 0x49D0, symBinAddr: 0x1000053F0, symSize: 0x2C }
  - { offset: 0x20682, size: 0x8, addend: 0x0, symName: __ZNSt3__19allocatorINS_6vectorINS_12basic_stringIcNS_11char_traitsIcEENS0_IcEEEENS0_IS6_EEEEEC2B8ne180100Ev, symObjAddr: 0x49FC, symBinAddr: 0x10000541C, symSize: 0x2C }
  - { offset: 0x206AC, size: 0x8, addend: 0x0, symName: __ZNSt3__116__non_trivial_ifILb1ENS_9allocatorINS_6vectorINS_12basic_stringIcNS_11char_traitsIcEENS1_IcEEEENS1_IS7_EEEEEEEC2B8ne180100Ev, symObjAddr: 0x4A28, symBinAddr: 0x100005448, symSize: 0x14 }
  - { offset: 0x206D6, size: 0x8, addend: 0x0, symName: __ZNSt3__16vectorINS0_INS_12basic_stringIcNS_11char_traitsIcEENS_9allocatorIcEEEENS4_IS6_EEEENS4_IS8_EEED2B8ne180100Ev, symObjAddr: 0x4A3C, symBinAddr: 0x10000545C, symSize: 0x40 }
  - { offset: 0x20700, size: 0x8, addend: 0x0, symName: __ZNKSt3__113basic_filebufIcNS_11char_traitsIcEEE7is_openEv, symObjAddr: 0x4A7C, symBinAddr: 0x10000549C, symSize: 0x24 }
  - { offset: 0x20728, size: 0x8, addend: 0x0, symName: __ZNSt3__16vectorINS_12basic_stringIcNS_11char_traitsIcEENS_9allocatorIcEEEENS4_IS6_EEEC2B8ne180100Ev, symObjAddr: 0x4AA0, symBinAddr: 0x1000054C0, symSize: 0x4C }
  - { offset: 0x20752, size: 0x8, addend: 0x0, symName: __ZNSt3__117__compressed_pairIPNS_12basic_stringIcNS_11char_traitsIcEENS_9allocatorIcEEEENS4_IS6_EEEC1B8ne180100IDnNS_18__default_init_tagEEEOT_OT0_, symObjAddr: 0x4AEC, symBinAddr: 0x10000550C, symSize: 0x3C }
  - { offset: 0x207AA, size: 0x8, addend: 0x0, symName: __ZNSt3__117__compressed_pairIPNS_12basic_stringIcNS_11char_traitsIcEENS_9allocatorIcEEEENS4_IS6_EEEC2B8ne180100IDnNS_18__default_init_tagEEEOT_OT0_, symObjAddr: 0x4B28, symBinAddr: 0x100005548, symSize: 0x40 }
  - { offset: 0x20802, size: 0x8, addend: 0x0, symName: __ZNSt3__122__compressed_pair_elemIPNS_12basic_stringIcNS_11char_traitsIcEENS_9allocatorIcEEEELi0ELb0EEC2B8ne180100IDnvEEOT_, symObjAddr: 0x4B68, symBinAddr: 0x100005588, symSize: 0x1C }
  - { offset: 0x20844, size: 0x8, addend: 0x0, symName: __ZNSt3__122__compressed_pair_elemINS_9allocatorINS_12basic_stringIcNS_11char_traitsIcEENS1_IcEEEEEELi1ELb1EEC2B8ne180100ENS_18__default_init_tagE, symObjAddr: 0x4B84, symBinAddr: 0x1000055A4, symSize: 0x2C }
  - { offset: 0x20878, size: 0x8, addend: 0x0, symName: __ZNSt3__19allocatorINS_12basic_stringIcNS_11char_traitsIcEENS0_IcEEEEEC2B8ne180100Ev, symObjAddr: 0x4BB0, symBinAddr: 0x1000055D0, symSize: 0x2C }
  - { offset: 0x208A2, size: 0x8, addend: 0x0, symName: __ZNSt3__116__non_trivial_ifILb1ENS_9allocatorINS_12basic_stringIcNS_11char_traitsIcEENS1_IcEEEEEEEC2B8ne180100Ev, symObjAddr: 0x4BDC, symBinAddr: 0x1000055FC, symSize: 0x14 }
  - { offset: 0x208CC, size: 0x8, addend: 0x0, symName: __ZNSt3__16vectorINS_12basic_stringIcNS_11char_traitsIcEENS_9allocatorIcEEEENS4_IS6_EEED2B8ne180100Ev, symObjAddr: 0x4BF0, symBinAddr: 0x100005610, symSize: 0x44 }
  - { offset: 0x208F6, size: 0x8, addend: 0x0, symName: __ZNSt3__16vectorINS_12basic_stringIcNS_11char_traitsIcEENS_9allocatorIcEEEENS4_IS6_EEE16__destroy_vectorC1B8ne180100ERS8_, symObjAddr: 0x4C34, symBinAddr: 0x100005654, symSize: 0x34 }
  - { offset: 0x2092F, size: 0x8, addend: 0x0, symName: __ZNSt3__16vectorINS_12basic_stringIcNS_11char_traitsIcEENS_9allocatorIcEEEENS4_IS6_EEE16__destroy_vectorclB8ne180100Ev, symObjAddr: 0x4C68, symBinAddr: 0x100005688, symSize: 0x90 }
  - { offset: 0x20955, size: 0x8, addend: 0x0, symName: __ZNSt3__16vectorINS_12basic_stringIcNS_11char_traitsIcEENS_9allocatorIcEEEENS4_IS6_EEE16__destroy_vectorC2B8ne180100ERS8_, symObjAddr: 0x4CF8, symBinAddr: 0x100005718, symSize: 0x20 }
  - { offset: 0x2098E, size: 0x8, addend: 0x0, symName: __ZNSt3__16vectorINS_12basic_stringIcNS_11char_traitsIcEENS_9allocatorIcEEEENS4_IS6_EEE7__clearB8ne180100Ev, symObjAddr: 0x4D18, symBinAddr: 0x100005738, symSize: 0x28 }
  - { offset: 0x209B4, size: 0x8, addend: 0x0, symName: __ZNKSt3__16vectorINS_12basic_stringIcNS_11char_traitsIcEENS_9allocatorIcEEEENS4_IS6_EEE17__annotate_deleteB8ne180100Ev, symObjAddr: 0x4D40, symBinAddr: 0x100005760, symSize: 0x10 }
  - { offset: 0x209DA, size: 0x8, addend: 0x0, symName: __ZNSt3__116allocator_traitsINS_9allocatorINS_12basic_stringIcNS_11char_traitsIcEENS1_IcEEEEEEE10deallocateB8ne180100ERS7_PS6_m, symObjAddr: 0x4D50, symBinAddr: 0x100005770, symSize: 0x34 }
  - { offset: 0x20A1C, size: 0x8, addend: 0x0, symName: __ZNSt3__16vectorINS_12basic_stringIcNS_11char_traitsIcEENS_9allocatorIcEEEENS4_IS6_EEE7__allocB8ne180100Ev, symObjAddr: 0x4D84, symBinAddr: 0x1000057A4, symSize: 0x28 }
  - { offset: 0x20A42, size: 0x8, addend: 0x0, symName: __ZNKSt3__16vectorINS_12basic_stringIcNS_11char_traitsIcEENS_9allocatorIcEEEENS4_IS6_EEE8capacityB8ne180100Ev, symObjAddr: 0x4DAC, symBinAddr: 0x1000057CC, symSize: 0x40 }
  - { offset: 0x20A68, size: 0x8, addend: 0x0, symName: __ZNSt3__16vectorINS_12basic_stringIcNS_11char_traitsIcEENS_9allocatorIcEEEENS4_IS6_EEE22__base_destruct_at_endB8ne180100EPS6_, symObjAddr: 0x4DEC, symBinAddr: 0x10000580C, symSize: 0x8C }
  - { offset: 0x20AAC, size: 0x8, addend: 0x0, symName: __ZNSt3__116allocator_traitsINS_9allocatorINS_12basic_stringIcNS_11char_traitsIcEENS1_IcEEEEEEE7destroyB8ne180100IS6_vEEvRS7_PT_, symObjAddr: 0x4E78, symBinAddr: 0x100005898, symSize: 0x2C }
  - { offset: 0x20AE9, size: 0x8, addend: 0x0, symName: __ZNSt3__19allocatorINS_12basic_stringIcNS_11char_traitsIcEENS0_IcEEEEE7destroyB8ne180100EPS5_, symObjAddr: 0x4EB8, symBinAddr: 0x1000058D8, symSize: 0x28 }
  - { offset: 0x20B1D, size: 0x8, addend: 0x0, symName: __ZNSt3__19allocatorINS_12basic_stringIcNS_11char_traitsIcEENS0_IcEEEEE10deallocateB8ne180100EPS5_m, symObjAddr: 0x4EE0, symBinAddr: 0x100005900, symSize: 0x44 }
  - { offset: 0x20B5F, size: 0x8, addend: 0x0, symName: __ZNSt3__117__compressed_pairIPNS_12basic_stringIcNS_11char_traitsIcEENS_9allocatorIcEEEENS4_IS6_EEE6secondB8ne180100Ev, symObjAddr: 0x4F24, symBinAddr: 0x100005944, symSize: 0x24 }
  - { offset: 0x20B85, size: 0x8, addend: 0x0, symName: __ZNSt3__122__compressed_pair_elemINS_9allocatorINS_12basic_stringIcNS_11char_traitsIcEENS1_IcEEEEEELi1ELb1EE5__getB8ne180100Ev, symObjAddr: 0x4F48, symBinAddr: 0x100005968, symSize: 0x14 }
  - { offset: 0x20BAB, size: 0x8, addend: 0x0, symName: __ZNKSt3__16vectorINS_12basic_stringIcNS_11char_traitsIcEENS_9allocatorIcEEEENS4_IS6_EEE9__end_capB8ne180100Ev, symObjAddr: 0x4F5C, symBinAddr: 0x10000597C, symSize: 0x28 }
  - { offset: 0x20BD1, size: 0x8, addend: 0x0, symName: __ZNKSt3__117__compressed_pairIPNS_12basic_stringIcNS_11char_traitsIcEENS_9allocatorIcEEEENS4_IS6_EEE5firstB8ne180100Ev, symObjAddr: 0x4F84, symBinAddr: 0x1000059A4, symSize: 0x24 }
  - { offset: 0x20BF7, size: 0x8, addend: 0x0, symName: __ZNKSt3__122__compressed_pair_elemIPNS_12basic_stringIcNS_11char_traitsIcEENS_9allocatorIcEEEELi0ELb0EE5__getB8ne180100Ev, symObjAddr: 0x4FA8, symBinAddr: 0x1000059C8, symSize: 0x14 }
  - { offset: 0x20C1D, size: 0x8, addend: 0x0, symName: __ZNKSt3__19basic_iosIcNS_11char_traitsIcEEE5widenB8ne180100Ec, symObjAddr: 0x51F4, symBinAddr: 0x100005C14, symSize: 0x84 }
  - { offset: 0x20C75, size: 0x8, addend: 0x0, symName: __ZNKSt3__113basic_istreamIcNS_11char_traitsIcEEE6sentrycvbB8ne180100Ev, symObjAddr: 0x5278, symBinAddr: 0x100005C98, symSize: 0x1C }
  - { offset: 0x20C9B, size: 0x8, addend: 0x0, symName: __ZNSt3__112basic_stringIcNS_11char_traitsIcEENS_9allocatorIcEEE5clearB8ne180100Ev, symObjAddr: 0x5294, symBinAddr: 0x100005CB4, symSize: 0x94 }
  - { offset: 0x20CD2, size: 0x8, addend: 0x0, symName: __ZNKSt3__19basic_iosIcNS_11char_traitsIcEEE5rdbufB8ne180100Ev, symObjAddr: 0x5328, symBinAddr: 0x100005D48, symSize: 0x24 }
  - { offset: 0x20CFA, size: 0x8, addend: 0x0, symName: __ZNSt3__115basic_streambufIcNS_11char_traitsIcEEE6sbumpcB8ne180100Ev, symObjAddr: 0x534C, symBinAddr: 0x100005D6C, symSize: 0x78 }
  - { offset: 0x20D20, size: 0x8, addend: 0x0, symName: __ZNSt3__111char_traitsIcE11eq_int_typeB8ne180100Eii, symObjAddr: 0x53C4, symBinAddr: 0x100005DE4, symSize: 0x28 }
  - { offset: 0x20D53, size: 0x8, addend: 0x0, symName: __ZNSt3__111char_traitsIcE12to_char_typeB8ne180100Ei, symObjAddr: 0x53EC, symBinAddr: 0x100005E0C, symSize: 0x18 }
  - { offset: 0x20D77, size: 0x8, addend: 0x0, symName: __ZNSt3__111char_traitsIcE2eqEcc, symObjAddr: 0x5404, symBinAddr: 0x100005E24, symSize: 0x28 }
  - { offset: 0x20DA8, size: 0x8, addend: 0x0, symName: __ZNKSt3__112basic_stringIcNS_11char_traitsIcEENS_9allocatorIcEEE8max_sizeB8ne180100Ev, symObjAddr: 0x542C, symBinAddr: 0x100005E4C, symSize: 0xAC }
  - { offset: 0x20DFA, size: 0x8, addend: 0x0, symName: __ZNSt3__18ios_base18__setstate_nothrowB8ne180100Ej, symObjAddr: 0x54D8, symBinAddr: 0x100005EF8, symSize: 0x64 }
  - { offset: 0x20E2F, size: 0x8, addend: 0x0, symName: __ZNKSt3__19basic_iosIcNS_11char_traitsIcEEE10exceptionsB8ne180100Ev, symObjAddr: 0x553C, symBinAddr: 0x100005F5C, symSize: 0x24 }
  - { offset: 0x20E55, size: 0x8, addend: 0x0, symName: __ZNSt3__111char_traitsIcE6assignB8ne180100ERcRKc, symObjAddr: 0x5560, symBinAddr: 0x100005F80, symSize: 0x24 }
  - { offset: 0x20E86, size: 0x8, addend: 0x0, symName: __ZNSt3__112basic_stringIcNS_11char_traitsIcEENS_9allocatorIcEEE18__get_long_pointerB8ne180100Ev, symObjAddr: 0x5584, symBinAddr: 0x100005FA4, symSize: 0x28 }
  - { offset: 0x20EAC, size: 0x8, addend: 0x0, symName: __ZNSt3__112basic_stringIcNS_11char_traitsIcEENS_9allocatorIcEEE15__set_long_sizeB8ne180100Em, symObjAddr: 0x55AC, symBinAddr: 0x100005FCC, symSize: 0x38 }
  - { offset: 0x20EE1, size: 0x8, addend: 0x0, symName: __ZNSt3__112basic_stringIcNS_11char_traitsIcEENS_9allocatorIcEEE19__get_short_pointerB8ne180100Ev, symObjAddr: 0x55E4, symBinAddr: 0x100006004, symSize: 0x28 }
  - { offset: 0x20F07, size: 0x8, addend: 0x0, symName: __ZNSt3__112basic_stringIcNS_11char_traitsIcEENS_9allocatorIcEEE16__set_short_sizeB8ne180100Em, symObjAddr: 0x560C, symBinAddr: 0x10000602C, symSize: 0x78 }
  - { offset: 0x20F3C, size: 0x8, addend: 0x0, symName: __ZNKSt3__112basic_stringIcNS_11char_traitsIcEENS_9allocatorIcEEE17__annotate_shrinkB8ne180100Em, symObjAddr: 0x5684, symBinAddr: 0x1000060A4, symSize: 0x14 }
  - { offset: 0x20F71, size: 0x8, addend: 0x0, symName: __ZNSt3__117__compressed_pairINS_12basic_stringIcNS_11char_traitsIcEENS_9allocatorIcEEE5__repES5_E5firstB8ne180100Ev, symObjAddr: 0x5698, symBinAddr: 0x1000060B8, symSize: 0x24 }
  - { offset: 0x20F97, size: 0x8, addend: 0x0, symName: __ZNSt3__122__compressed_pair_elemINS_12basic_stringIcNS_11char_traitsIcEENS_9allocatorIcEEE5__repELi0ELb0EE5__getB8ne180100Ev, symObjAddr: 0x56BC, symBinAddr: 0x1000060DC, symSize: 0x14 }
  - { offset: 0x20FBD, size: 0x8, addend: 0x0, symName: __ZNSt3__114pointer_traitsIPcE10pointer_toB8ne180100ERc, symObjAddr: 0x56D0, symBinAddr: 0x1000060F0, symSize: 0x14 }
  - { offset: 0x20FE0, size: 0x8, addend: 0x0, symName: __ZNKSt3__18ios_base5rdbufB8ne180100Ev, symObjAddr: 0x56E4, symBinAddr: 0x100006104, symSize: 0x18 }
  - { offset: 0x21006, size: 0x8, addend: 0x0, symName: __ZNSt3__111char_traitsIcE11to_int_typeB8ne180100Ec, symObjAddr: 0x56FC, symBinAddr: 0x10000611C, symSize: 0x14 }
  - { offset: 0x21035, size: 0x8, addend: 0x0, symName: __ZNSt3__116allocator_traitsINS_9allocatorIcEEE8max_sizeB8ne180100IS2_vEEmRKS2_, symObjAddr: 0x5710, symBinAddr: 0x100006130, symSize: 0x24 }
  - { offset: 0x21063, size: 0x8, addend: 0x0, symName: __ZNKSt3__112basic_stringIcNS_11char_traitsIcEENS_9allocatorIcEEE7__allocB8ne180100Ev, symObjAddr: 0x5734, symBinAddr: 0x100006154, symSize: 0x24 }
  - { offset: 0x21089, size: 0x8, addend: 0x0, symName: __ZNSt3__114numeric_limitsImE3maxB8ne180100Ev, symObjAddr: 0x5758, symBinAddr: 0x100006178, symSize: 0x14 }
  - { offset: 0x2109D, size: 0x8, addend: 0x0, symName: __ZNKSt3__19allocatorIcE8max_sizeB8ne180100Ev, symObjAddr: 0x576C, symBinAddr: 0x10000618C, symSize: 0x14 }
  - { offset: 0x210C3, size: 0x8, addend: 0x0, symName: __ZNKSt3__117__compressed_pairINS_12basic_stringIcNS_11char_traitsIcEENS_9allocatorIcEEE5__repES5_E6secondB8ne180100Ev, symObjAddr: 0x5780, symBinAddr: 0x1000061A0, symSize: 0x24 }
  - { offset: 0x210E9, size: 0x8, addend: 0x0, symName: __ZNKSt3__122__compressed_pair_elemINS_9allocatorIcEELi1ELb1EE5__getB8ne180100Ev, symObjAddr: 0x57A4, symBinAddr: 0x1000061C4, symSize: 0x14 }
  - { offset: 0x2110F, size: 0x8, addend: 0x0, symName: __ZNSt3__123__libcpp_numeric_limitsImLb1EE3maxB8ne180100Ev, symObjAddr: 0x57B8, symBinAddr: 0x1000061D8, symSize: 0x8 }
  - { offset: 0x21123, size: 0x8, addend: 0x0, symName: __ZNKSt3__18ios_base10exceptionsB8ne180100Ev, symObjAddr: 0x57C0, symBinAddr: 0x1000061E0, symSize: 0x18 }
  - { offset: 0x21188, size: 0x8, addend: 0x0, symName: __ZNKSt3__15ctypeIcE5widenB8ne180100Ec, symObjAddr: 0x5804, symBinAddr: 0x100006224, symSize: 0x38 }
  - { offset: 0x211BD, size: 0x8, addend: 0x0, symName: __ZNKSt3__19basic_iosIcNS_11char_traitsIcEEE4failB8ne180100Ev, symObjAddr: 0x583C, symBinAddr: 0x10000625C, symSize: 0x28 }
  - { offset: 0x211E3, size: 0x8, addend: 0x0, symName: __ZNKSt3__18ios_base4failB8ne180100Ev, symObjAddr: 0x5864, symBinAddr: 0x100006284, symSize: 0x28 }
  - { offset: 0x2120B, size: 0x8, addend: 0x0, symName: __ZNSt3__112basic_stringIcNS_11char_traitsIcEENS_9allocatorIcEEE13__fits_in_ssoB8ne180100Em, symObjAddr: 0x588C, symBinAddr: 0x1000062AC, symSize: 0x20 }
  - { offset: 0x2122F, size: 0x8, addend: 0x0, symName: __ZNSt3__112basic_stringIcNS_11char_traitsIcEENS_9allocatorIcEEE13__get_pointerB8ne180100Ev, symObjAddr: 0x58AC, symBinAddr: 0x1000062CC, symSize: 0x54 }
  - { offset: 0x21255, size: 0x8, addend: 0x0, symName: __ZNSt3__16vectorINS_12basic_stringIcNS_11char_traitsIcEENS_9allocatorIcEEEENS4_IS6_EEE11__make_iterB8ne180100EPS6_, symObjAddr: 0x5900, symBinAddr: 0x100006320, symSize: 0x30 }
  - { offset: 0x2128A, size: 0x8, addend: 0x0, symName: __ZNSt3__111__wrap_iterIPNS_12basic_stringIcNS_11char_traitsIcEENS_9allocatorIcEEEEEC1B8ne180100ES7_, symObjAddr: 0x5930, symBinAddr: 0x100006350, symSize: 0x34 }
  - { offset: 0x212C2, size: 0x8, addend: 0x0, symName: __ZNSt3__111__wrap_iterIPNS_12basic_stringIcNS_11char_traitsIcEENS_9allocatorIcEEEEEC2B8ne180100ES7_, symObjAddr: 0x5964, symBinAddr: 0x100006384, symSize: 0x20 }
  - { offset: 0x212FA, size: 0x8, addend: 0x0, symName: __ZNSt3__16vectorINS_12basic_stringIcNS_11char_traitsIcEENS_9allocatorIcEEEENS4_IS6_EEEC2INS_11__wrap_iterIPS6_EELi0EEET_SD_, symObjAddr: 0x5984, symBinAddr: 0x1000063A4, symSize: 0x94 }
  - { offset: 0x21370, size: 0x8, addend: 0x0, symName: __ZNSt3__16vectorINS_12basic_stringIcNS_11char_traitsIcEENS_9allocatorIcEEEENS4_IS6_EEE16__init_with_sizeB8ne180100INS_11__wrap_iterIPS6_EESC_EEvT_T0_m, symObjAddr: 0x5A54, symBinAddr: 0x100006474, symSize: 0xC8 }
  - { offset: 0x213E4, size: 0x8, addend: 0x0, symName: __ZNKSt3__111__wrap_iterIPNS_12basic_stringIcNS_11char_traitsIcEENS_9allocatorIcEEEEE4baseB8ne180100Ev, symObjAddr: 0x5B94, symBinAddr: 0x1000065B4, symSize: 0x18 }
  - { offset: 0x2140A, size: 0x8, addend: 0x0, symName: __ZNSt3__16vectorINS_12basic_stringIcNS_11char_traitsIcEENS_9allocatorIcEEEENS4_IS6_EEE11__vallocateB8ne180100Em, symObjAddr: 0x5BEC, symBinAddr: 0x10000660C, symSize: 0xB4 }
  - { offset: 0x2144E, size: 0x8, addend: 0x0, symName: __ZNSt3__16vectorINS_12basic_stringIcNS_11char_traitsIcEENS_9allocatorIcEEEENS4_IS6_EEE18__construct_at_endINS_11__wrap_iterIPS6_EESC_EEvT_T0_m, symObjAddr: 0x5CA0, symBinAddr: 0x1000066C0, symSize: 0x9C }
  - { offset: 0x214C4, size: 0x8, addend: 0x0, symName: __ZNSt3__128__exception_guard_exceptionsINS_6vectorINS_12basic_stringIcNS_11char_traitsIcEENS_9allocatorIcEEEENS5_IS7_EEE16__destroy_vectorEE10__completeB8ne180100Ev, symObjAddr: 0x5D3C, symBinAddr: 0x10000675C, symSize: 0x1C }
  - { offset: 0x214EA, size: 0x8, addend: 0x0, symName: __ZNSt3__128__exception_guard_exceptionsINS_6vectorINS_12basic_stringIcNS_11char_traitsIcEENS_9allocatorIcEEEENS5_IS7_EEE16__destroy_vectorEED1B8ne180100Ev, symObjAddr: 0x5D58, symBinAddr: 0x100006778, symSize: 0x2C }
  - { offset: 0x21514, size: 0x8, addend: 0x0, symName: __ZNSt3__128__exception_guard_exceptionsINS_6vectorINS_12basic_stringIcNS_11char_traitsIcEENS_9allocatorIcEEEENS5_IS7_EEE16__destroy_vectorEEC1B8ne180100ESA_, symObjAddr: 0x5D84, symBinAddr: 0x1000067A4, symSize: 0x34 }
  - { offset: 0x2154C, size: 0x8, addend: 0x0, symName: __ZNSt3__128__exception_guard_exceptionsINS_6vectorINS_12basic_stringIcNS_11char_traitsIcEENS_9allocatorIcEEEENS5_IS7_EEE16__destroy_vectorEEC2B8ne180100ESA_, symObjAddr: 0x5DB8, symBinAddr: 0x1000067D8, symSize: 0x24 }
  - { offset: 0x21584, size: 0x8, addend: 0x0, symName: __ZNKSt3__16vectorINS_12basic_stringIcNS_11char_traitsIcEENS_9allocatorIcEEEENS4_IS6_EEE8max_sizeEv, symObjAddr: 0x5DDC, symBinAddr: 0x1000067FC, symSize: 0x60 }
  - { offset: 0x215AC, size: 0x8, addend: 0x0, symName: __ZNKSt3__16vectorINS_12basic_stringIcNS_11char_traitsIcEENS_9allocatorIcEEEENS4_IS6_EEE20__throw_length_errorB8ne180100Ev, symObjAddr: 0x5E3C, symBinAddr: 0x10000685C, symSize: 0x1C }
  - { offset: 0x215D2, size: 0x8, addend: 0x0, symName: __ZNSt3__16vectorINS_12basic_stringIcNS_11char_traitsIcEENS_9allocatorIcEEEENS4_IS6_EEE9__end_capB8ne180100Ev, symObjAddr: 0x5E98, symBinAddr: 0x1000068B8, symSize: 0x28 }
  - { offset: 0x215F8, size: 0x8, addend: 0x0, symName: __ZNKSt3__16vectorINS_12basic_stringIcNS_11char_traitsIcEENS_9allocatorIcEEEENS4_IS6_EEE14__annotate_newB8ne180100Em, symObjAddr: 0x5EC0, symBinAddr: 0x1000068E0, symSize: 0x14 }
  - { offset: 0x21638, size: 0x8, addend: 0x0, symName: __ZNSt3__116allocator_traitsINS_9allocatorINS_12basic_stringIcNS_11char_traitsIcEENS1_IcEEEEEEE8max_sizeB8ne180100IS7_vEEmRKS7_, symObjAddr: 0x5ED4, symBinAddr: 0x1000068F4, symSize: 0x24 }
  - { offset: 0x21666, size: 0x8, addend: 0x0, symName: __ZNKSt3__16vectorINS_12basic_stringIcNS_11char_traitsIcEENS_9allocatorIcEEEENS4_IS6_EEE7__allocB8ne180100Ev, symObjAddr: 0x5EF8, symBinAddr: 0x100006918, symSize: 0x28 }
  - { offset: 0x2168C, size: 0x8, addend: 0x0, symName: __ZNKSt3__19allocatorINS_12basic_stringIcNS_11char_traitsIcEENS0_IcEEEEE8max_sizeB8ne180100Ev, symObjAddr: 0x5F20, symBinAddr: 0x100006940, symSize: 0x18 }
  - { offset: 0x216B2, size: 0x8, addend: 0x0, symName: __ZNKSt3__117__compressed_pairIPNS_12basic_stringIcNS_11char_traitsIcEENS_9allocatorIcEEEENS4_IS6_EEE6secondB8ne180100Ev, symObjAddr: 0x5F38, symBinAddr: 0x100006958, symSize: 0x24 }
  - { offset: 0x216D8, size: 0x8, addend: 0x0, symName: __ZNKSt3__122__compressed_pair_elemINS_9allocatorINS_12basic_stringIcNS_11char_traitsIcEENS1_IcEEEEEELi1ELb1EE5__getB8ne180100Ev, symObjAddr: 0x5F5C, symBinAddr: 0x10000697C, symSize: 0x14 }
  - { offset: 0x216FE, size: 0x8, addend: 0x0, symName: __ZNSt3__19allocatorINS_12basic_stringIcNS_11char_traitsIcEENS0_IcEEEEE8allocateB8ne180100Em, symObjAddr: 0x5F70, symBinAddr: 0x100006990, symSize: 0x5C }
  - { offset: 0x21732, size: 0x8, addend: 0x0, symName: __ZNSt3__117__compressed_pairIPNS_12basic_stringIcNS_11char_traitsIcEENS_9allocatorIcEEEENS4_IS6_EEE5firstB8ne180100Ev, symObjAddr: 0x5FCC, symBinAddr: 0x1000069EC, symSize: 0x24 }
  - { offset: 0x21758, size: 0x8, addend: 0x0, symName: __ZNSt3__122__compressed_pair_elemIPNS_12basic_stringIcNS_11char_traitsIcEENS_9allocatorIcEEEELi0ELb0EE5__getB8ne180100Ev, symObjAddr: 0x5FF0, symBinAddr: 0x100006A10, symSize: 0x14 }
  - { offset: 0x21799, size: 0x8, addend: 0x0, symName: __ZNSt3__16vectorINS_12basic_stringIcNS_11char_traitsIcEENS_9allocatorIcEEEENS4_IS6_EEE21_ConstructTransactionC1B8ne180100ERS8_m, symObjAddr: 0x6004, symBinAddr: 0x100006A24, symSize: 0x3C }
  - { offset: 0x217E1, size: 0x8, addend: 0x0, symName: __ZNSt3__16vectorINS_12basic_stringIcNS_11char_traitsIcEENS_9allocatorIcEEEENS4_IS6_EEE21_ConstructTransactionD1B8ne180100Ev, symObjAddr: 0x60D0, symBinAddr: 0x100006AF0, symSize: 0x2C }
  - { offset: 0x2180B, size: 0x8, addend: 0x0, symName: __ZNSt3__16vectorINS_12basic_stringIcNS_11char_traitsIcEENS_9allocatorIcEEEENS4_IS6_EEE21_ConstructTransactionC2B8ne180100ERS8_m, symObjAddr: 0x60FC, symBinAddr: 0x100006B1C, symSize: 0x4C }
  - { offset: 0x21875, size: 0x8, addend: 0x0, symName: __ZNSt3__14pairIPNS_12basic_stringIcNS_11char_traitsIcEENS_9allocatorIcEEEES7_EC1B8ne180100IS7_S7_Li0EEEOT_OT0_, symObjAddr: 0x6370, symBinAddr: 0x100006D90, symSize: 0x3C }
  - { offset: 0x218D3, size: 0x8, addend: 0x0, symName: __ZNSt3__14pairIPNS_12basic_stringIcNS_11char_traitsIcEENS_9allocatorIcEEEES7_EC2B8ne180100IS7_S7_Li0EEEOT_OT0_, symObjAddr: 0x63AC, symBinAddr: 0x100006DCC, symSize: 0x34 }
  - { offset: 0x21931, size: 0x8, addend: 0x0, symName: __ZNSt3__118__unwrap_iter_implINS_11__wrap_iterIPNS_12basic_stringIcNS_11char_traitsIcEENS_9allocatorIcEEEEEELb1EE8__unwrapB8ne180100ES9_, symObjAddr: 0x63E0, symBinAddr: 0x100006E00, symSize: 0x28 }
  - { offset: 0x2195F, size: 0x8, addend: 0x0, symName: __ZNSt3__119__to_address_helperINS_11__wrap_iterIPNS_12basic_stringIcNS_11char_traitsIcEENS_9allocatorIcEEEEEEvE6__callB8ne180100ERKS9_, symObjAddr: 0x642C, symBinAddr: 0x100006E4C, symSize: 0x30 }
  - { offset: 0x21982, size: 0x8, addend: 0x0, symName: __ZNSt3__114pointer_traitsINS_11__wrap_iterIPNS_12basic_stringIcNS_11char_traitsIcEENS_9allocatorIcEEEEEEE10to_addressB8ne180100ES9_, symObjAddr: 0x645C, symBinAddr: 0x100006E7C, symSize: 0x2C }
  - { offset: 0x219A5, size: 0x8, addend: 0x0, symName: __ZNSt3__129_AllocatorDestroyRangeReverseINS_9allocatorINS_12basic_stringIcNS_11char_traitsIcEENS1_IcEEEEEEPS6_EC1B8ne180100ERS7_RS8_SB_, symObjAddr: 0x64D4, symBinAddr: 0x100006EF4, symSize: 0x44 }
  - { offset: 0x219FC, size: 0x8, addend: 0x0, symName: __ZNSt3__116allocator_traitsINS_9allocatorINS_12basic_stringIcNS_11char_traitsIcEENS1_IcEEEEEEE9constructB8ne180100IS6_JRS6_EvEEvRS7_PT_DpOT0_, symObjAddr: 0x6518, symBinAddr: 0x100006F38, symSize: 0x34 }
  - { offset: 0x21A53, size: 0x8, addend: 0x0, symName: __ZNSt3__128__exception_guard_exceptionsINS_29_AllocatorDestroyRangeReverseINS_9allocatorINS_12basic_stringIcNS_11char_traitsIcEENS2_IcEEEEEEPS7_EEE10__completeB8ne180100Ev, symObjAddr: 0x654C, symBinAddr: 0x100006F6C, symSize: 0x1C }
  - { offset: 0x21A79, size: 0x8, addend: 0x0, symName: __ZNSt3__128__exception_guard_exceptionsINS_29_AllocatorDestroyRangeReverseINS_9allocatorINS_12basic_stringIcNS_11char_traitsIcEENS2_IcEEEEEEPS7_EEED1B8ne180100Ev, symObjAddr: 0x6568, symBinAddr: 0x100006F88, symSize: 0x2C }
  - { offset: 0x21AA3, size: 0x8, addend: 0x0, symName: __ZNSt3__128__exception_guard_exceptionsINS_29_AllocatorDestroyRangeReverseINS_9allocatorINS_12basic_stringIcNS_11char_traitsIcEENS2_IcEEEEEEPS7_EEEC1B8ne180100ESA_, symObjAddr: 0x6594, symBinAddr: 0x100006FB4, symSize: 0x34 }
  - { offset: 0x21ADC, size: 0x8, addend: 0x0, symName: __ZNSt3__128__exception_guard_exceptionsINS_29_AllocatorDestroyRangeReverseINS_9allocatorINS_12basic_stringIcNS_11char_traitsIcEENS2_IcEEEEEEPS7_EEEC2B8ne180100ESA_, symObjAddr: 0x65C8, symBinAddr: 0x100006FE8, symSize: 0x30 }
  - { offset: 0x21B15, size: 0x8, addend: 0x0, symName: __ZNSt3__129_AllocatorDestroyRangeReverseINS_9allocatorINS_12basic_stringIcNS_11char_traitsIcEENS1_IcEEEEEEPS6_EC2B8ne180100ERS7_RS8_SB_, symObjAddr: 0x65F8, symBinAddr: 0x100007018, symSize: 0x38 }
  - { offset: 0x21B6C, size: 0x8, addend: 0x0, symName: __ZNSt3__19allocatorINS_12basic_stringIcNS_11char_traitsIcEENS0_IcEEEEE9constructB8ne180100IS5_JRS5_EEEvPT_DpOT0_, symObjAddr: 0x6630, symBinAddr: 0x100007050, symSize: 0x30 }
  - { offset: 0x21BC2, size: 0x8, addend: 0x0, symName: __ZNSt3__128__exception_guard_exceptionsINS_29_AllocatorDestroyRangeReverseINS_9allocatorINS_12basic_stringIcNS_11char_traitsIcEENS2_IcEEEEEEPS7_EEED2B8ne180100Ev, symObjAddr: 0x6660, symBinAddr: 0x100007080, symSize: 0x50 }
  - { offset: 0x21BEC, size: 0x8, addend: 0x0, symName: __ZNKSt3__129_AllocatorDestroyRangeReverseINS_9allocatorINS_12basic_stringIcNS_11char_traitsIcEENS1_IcEEEEEEPS6_EclB8ne180100Ev, symObjAddr: 0x66B0, symBinAddr: 0x1000070D0, symSize: 0x68 }
  - { offset: 0x21C12, size: 0x8, addend: 0x0, symName: __ZNSt3__116reverse_iteratorIPNS_12basic_stringIcNS_11char_traitsIcEENS_9allocatorIcEEEEEC1B8ne180100ES7_, symObjAddr: 0x6788, symBinAddr: 0x1000071A8, symSize: 0x34 }
  - { offset: 0x21C4A, size: 0x8, addend: 0x0, symName: __ZNSt3__116reverse_iteratorIPNS_12basic_stringIcNS_11char_traitsIcEENS_9allocatorIcEEEEEppB8ne180100Ev, symObjAddr: 0x6828, symBinAddr: 0x100007248, symSize: 0x20 }
  - { offset: 0x21C70, size: 0x8, addend: 0x0, symName: __ZNKSt3__116reverse_iteratorIPNS_12basic_stringIcNS_11char_traitsIcEENS_9allocatorIcEEEEE4baseB8ne180100Ev, symObjAddr: 0x6848, symBinAddr: 0x100007268, symSize: 0x18 }
  - { offset: 0x21C9C, size: 0x8, addend: 0x0, symName: __ZNSt3__119__to_address_helperINS_16reverse_iteratorIPNS_12basic_stringIcNS_11char_traitsIcEENS_9allocatorIcEEEEEEvE6__callB8ne180100ERKS9_, symObjAddr: 0x6860, symBinAddr: 0x100007280, symSize: 0x38 }
  - { offset: 0x21CBF, size: 0x8, addend: 0x0, symName: __ZNKSt3__116reverse_iteratorIPNS_12basic_stringIcNS_11char_traitsIcEENS_9allocatorIcEEEEEptB8ne180100Ev, symObjAddr: 0x6898, symBinAddr: 0x1000072B8, symSize: 0x24 }
  - { offset: 0x21CE5, size: 0x8, addend: 0x0, symName: __ZNKSt3__116reverse_iteratorIPNS_12basic_stringIcNS_11char_traitsIcEENS_9allocatorIcEEEEEdeB8ne180100Ev, symObjAddr: 0x68BC, symBinAddr: 0x1000072DC, symSize: 0x28 }
  - { offset: 0x21D19, size: 0x8, addend: 0x0, symName: __ZNSt3__116reverse_iteratorIPNS_12basic_stringIcNS_11char_traitsIcEENS_9allocatorIcEEEEEC2B8ne180100ES7_, symObjAddr: 0x68E4, symBinAddr: 0x100007304, symSize: 0x28 }
  - { offset: 0x21D51, size: 0x8, addend: 0x0, symName: __ZNSt3__118__unwrap_iter_implIPNS_12basic_stringIcNS_11char_traitsIcEENS_9allocatorIcEEEELb1EE8__unwrapB8ne180100ES7_, symObjAddr: 0x690C, symBinAddr: 0x10000732C, symSize: 0x24 }
  - { offset: 0x21D74, size: 0x8, addend: 0x0, symName: __ZNSt3__118__unwrap_iter_implIPNS_12basic_stringIcNS_11char_traitsIcEENS_9allocatorIcEEEELb1EE8__rewrapB8ne180100ES7_S7_, symObjAddr: 0x6930, symBinAddr: 0x100007350, symSize: 0x58 }
  - { offset: 0x21DA5, size: 0x8, addend: 0x0, symName: __ZNSt3__16vectorINS_12basic_stringIcNS_11char_traitsIcEENS_9allocatorIcEEEENS4_IS6_EEE21_ConstructTransactionD2B8ne180100Ev, symObjAddr: 0x6988, symBinAddr: 0x1000073A8, symSize: 0x20 }
  - { offset: 0x21DCF, size: 0x8, addend: 0x0, symName: __ZNSt3__128__exception_guard_exceptionsINS_6vectorINS_12basic_stringIcNS_11char_traitsIcEENS_9allocatorIcEEEENS5_IS7_EEE16__destroy_vectorEED2B8ne180100Ev, symObjAddr: 0x69A8, symBinAddr: 0x1000073C8, symSize: 0x48 }
  - { offset: 0x21DF9, size: 0x8, addend: 0x0, symName: __ZNSt3__16vectorINS0_INS_12basic_stringIcNS_11char_traitsIcEENS_9allocatorIcEEEENS4_IS6_EEEENS4_IS8_EEE22__construct_one_at_endB8ne180100IJS8_EEEvDpOT_, symObjAddr: 0x69F0, symBinAddr: 0x100007410, symSize: 0x90 }
  - { offset: 0x21E48, size: 0x8, addend: 0x0, symName: __ZNSt3__16vectorINS0_INS_12basic_stringIcNS_11char_traitsIcEENS_9allocatorIcEEEENS4_IS6_EEEENS4_IS8_EEE21__push_back_slow_pathIS8_EEPS8_OT_, symObjAddr: 0x6A80, symBinAddr: 0x1000074A0, symSize: 0xE8 }
  - { offset: 0x21EA6, size: 0x8, addend: 0x0, symName: __ZNSt3__116allocator_traitsINS_9allocatorINS_6vectorINS_12basic_stringIcNS_11char_traitsIcEENS1_IcEEEENS1_IS7_EEEEEEE9constructB8ne180100IS9_JS9_EvEEvRSA_PT_DpOT0_, symObjAddr: 0x6B68, symBinAddr: 0x100007588, symSize: 0x34 }
  - { offset: 0x21EFD, size: 0x8, addend: 0x0, symName: __ZNSt3__19allocatorINS_6vectorINS_12basic_stringIcNS_11char_traitsIcEENS0_IcEEEENS0_IS6_EEEEE9constructB8ne180100IS8_JS8_EEEvPT_DpOT0_, symObjAddr: 0x6B9C, symBinAddr: 0x1000075BC, symSize: 0x30 }
  - { offset: 0x21F53, size: 0x8, addend: 0x0, symName: __ZNSt3__16vectorINS_12basic_stringIcNS_11char_traitsIcEENS_9allocatorIcEEEENS4_IS6_EEEC1B8ne180100EOS8_, symObjAddr: 0x6BCC, symBinAddr: 0x1000075EC, symSize: 0x34 }
  - { offset: 0x21F8E, size: 0x8, addend: 0x0, symName: __ZNSt3__16vectorINS_12basic_stringIcNS_11char_traitsIcEENS_9allocatorIcEEEENS4_IS6_EEEC2B8ne180100EOS8_, symObjAddr: 0x6C00, symBinAddr: 0x100007620, symSize: 0xC4 }
  - { offset: 0x21FCF, size: 0x8, addend: 0x0, symName: __ZNSt3__117__compressed_pairIPNS_12basic_stringIcNS_11char_traitsIcEENS_9allocatorIcEEEENS4_IS6_EEEC1B8ne180100IDnS8_EEOT_OT0_, symObjAddr: 0x6CC4, symBinAddr: 0x1000076E4, symSize: 0x3C }
  - { offset: 0x22027, size: 0x8, addend: 0x0, symName: __ZNSt3__117__compressed_pairIPNS_12basic_stringIcNS_11char_traitsIcEENS_9allocatorIcEEEENS4_IS6_EEEC2B8ne180100IDnS8_EEOT_OT0_, symObjAddr: 0x6D00, symBinAddr: 0x100007720, symSize: 0x44 }
  - { offset: 0x2207F, size: 0x8, addend: 0x0, symName: __ZNSt3__122__compressed_pair_elemINS_9allocatorINS_12basic_stringIcNS_11char_traitsIcEENS1_IcEEEEEELi1ELb1EEC2B8ne180100IS7_vEEOT_, symObjAddr: 0x6D44, symBinAddr: 0x100007764, symSize: 0x18 }
  - { offset: 0x220C1, size: 0x8, addend: 0x0, symName: __ZNKSt3__16vectorINS0_INS_12basic_stringIcNS_11char_traitsIcEENS_9allocatorIcEEEENS4_IS6_EEEENS4_IS8_EEE11__recommendB8ne180100Em, symObjAddr: 0x6D5C, symBinAddr: 0x10000777C, symSize: 0xB4 }
  - { offset: 0x22116, size: 0x8, addend: 0x0, symName: __ZNSt3__114__split_bufferINS_6vectorINS_12basic_stringIcNS_11char_traitsIcEENS_9allocatorIcEEEENS5_IS7_EEEERNS5_IS9_EEEC1EmmSB_, symObjAddr: 0x6E10, symBinAddr: 0x100007830, symSize: 0x44 }
  - { offset: 0x2216C, size: 0x8, addend: 0x0, symName: __ZNSt3__114__split_bufferINS_6vectorINS_12basic_stringIcNS_11char_traitsIcEENS_9allocatorIcEEEENS5_IS7_EEEERNS5_IS9_EEED1Ev, symObjAddr: 0x6F64, symBinAddr: 0x100007984, symSize: 0x2C }
  - { offset: 0x22198, size: 0x8, addend: 0x0, symName: __ZNSt3__114__split_bufferINS_6vectorINS_12basic_stringIcNS_11char_traitsIcEENS_9allocatorIcEEEENS5_IS7_EEEERNS5_IS9_EEEC2EmmSB_, symObjAddr: 0x7010, symBinAddr: 0x100007A30, symSize: 0xE0 }
  - { offset: 0x2220B, size: 0x8, addend: 0x0, symName: __ZNSt3__117__compressed_pairIPNS_6vectorINS_12basic_stringIcNS_11char_traitsIcEENS_9allocatorIcEEEENS5_IS7_EEEERNS5_IS9_EEEC1B8ne180100IDnSC_EEOT_OT0_, symObjAddr: 0x70F0, symBinAddr: 0x100007B10, symSize: 0x3C }
  - { offset: 0x22263, size: 0x8, addend: 0x0, symName: __ZNSt3__114__split_bufferINS_6vectorINS_12basic_stringIcNS_11char_traitsIcEENS_9allocatorIcEEEENS5_IS7_EEEERNS5_IS9_EEE7__allocB8ne180100Ev, symObjAddr: 0x712C, symBinAddr: 0x100007B4C, symSize: 0x28 }
  - { offset: 0x22289, size: 0x8, addend: 0x0, symName: __ZNSt3__114__split_bufferINS_6vectorINS_12basic_stringIcNS_11char_traitsIcEENS_9allocatorIcEEEENS5_IS7_EEEERNS5_IS9_EEE9__end_capB8ne180100Ev, symObjAddr: 0x7154, symBinAddr: 0x100007B74, symSize: 0x28 }
  - { offset: 0x222AF, size: 0x8, addend: 0x0, symName: __ZNSt3__117__compressed_pairIPNS_6vectorINS_12basic_stringIcNS_11char_traitsIcEENS_9allocatorIcEEEENS5_IS7_EEEERNS5_IS9_EEEC2B8ne180100IDnSC_EEOT_OT0_, symObjAddr: 0x717C, symBinAddr: 0x100007B9C, symSize: 0x48 }
  - { offset: 0x22307, size: 0x8, addend: 0x0, symName: __ZNSt3__122__compressed_pair_elemIRNS_9allocatorINS_6vectorINS_12basic_stringIcNS_11char_traitsIcEENS1_IcEEEENS1_IS7_EEEEEELi1ELb0EEC2B8ne180100ISB_vEEOT_, symObjAddr: 0x71C4, symBinAddr: 0x100007BE4, symSize: 0x20 }
  - { offset: 0x22349, size: 0x8, addend: 0x0, symName: __ZNSt3__117__compressed_pairIPNS_6vectorINS_12basic_stringIcNS_11char_traitsIcEENS_9allocatorIcEEEENS5_IS7_EEEERNS5_IS9_EEE6secondB8ne180100Ev, symObjAddr: 0x71E4, symBinAddr: 0x100007C04, symSize: 0x28 }
  - { offset: 0x2236F, size: 0x8, addend: 0x0, symName: __ZNSt3__122__compressed_pair_elemIRNS_9allocatorINS_6vectorINS_12basic_stringIcNS_11char_traitsIcEENS1_IcEEEENS1_IS7_EEEEEELi1ELb0EE5__getB8ne180100Ev, symObjAddr: 0x720C, symBinAddr: 0x100007C2C, symSize: 0x18 }
  - { offset: 0x22395, size: 0x8, addend: 0x0, symName: __ZNSt3__117__compressed_pairIPNS_6vectorINS_12basic_stringIcNS_11char_traitsIcEENS_9allocatorIcEEEENS5_IS7_EEEERNS5_IS9_EEE5firstB8ne180100Ev, symObjAddr: 0x7224, symBinAddr: 0x100007C44, symSize: 0x24 }
  - { offset: 0x223BB, size: 0x8, addend: 0x0, symName: __ZNSt3__129_AllocatorDestroyRangeReverseINS_9allocatorINS_6vectorINS_12basic_stringIcNS_11char_traitsIcEENS1_IcEEEENS1_IS7_EEEEEENS_16reverse_iteratorIPS9_EEEC1B8ne180100ERSA_RSD_SG_, symObjAddr: 0x73EC, symBinAddr: 0x100007E0C, symSize: 0x44 }
  - { offset: 0x22412, size: 0x8, addend: 0x0, symName: __ZNSt3__128__exception_guard_exceptionsINS_29_AllocatorDestroyRangeReverseINS_9allocatorINS_6vectorINS_12basic_stringIcNS_11char_traitsIcEENS2_IcEEEENS2_IS8_EEEEEENS_16reverse_iteratorIPSA_EEEEE10__completeB8ne180100Ev, symObjAddr: 0x7430, symBinAddr: 0x100007E50, symSize: 0x1C }
  - { offset: 0x22438, size: 0x8, addend: 0x0, symName: __ZNSt3__128__exception_guard_exceptionsINS_29_AllocatorDestroyRangeReverseINS_9allocatorINS_6vectorINS_12basic_stringIcNS_11char_traitsIcEENS2_IcEEEENS2_IS8_EEEEEENS_16reverse_iteratorIPSA_EEEEED1B8ne180100Ev, symObjAddr: 0x744C, symBinAddr: 0x100007E6C, symSize: 0x2C }
  - { offset: 0x22462, size: 0x8, addend: 0x0, symName: __ZNSt3__128__exception_guard_exceptionsINS_29_AllocatorDestroyRangeReverseINS_9allocatorINS_6vectorINS_12basic_stringIcNS_11char_traitsIcEENS2_IcEEEENS2_IS8_EEEEEENS_16reverse_iteratorIPSA_EEEEEC1B8ne180100ESF_, symObjAddr: 0x7478, symBinAddr: 0x100007E98, symSize: 0x34 }
  - { offset: 0x2249B, size: 0x8, addend: 0x0, symName: __ZNSt3__128__exception_guard_exceptionsINS_29_AllocatorDestroyRangeReverseINS_9allocatorINS_6vectorINS_12basic_stringIcNS_11char_traitsIcEENS2_IcEEEENS2_IS8_EEEEEENS_16reverse_iteratorIPSA_EEEEEC2B8ne180100ESF_, symObjAddr: 0x74AC, symBinAddr: 0x100007ECC, symSize: 0x30 }
  - { offset: 0x224D4, size: 0x8, addend: 0x0, symName: __ZNSt3__129_AllocatorDestroyRangeReverseINS_9allocatorINS_6vectorINS_12basic_stringIcNS_11char_traitsIcEENS1_IcEEEENS1_IS7_EEEEEENS_16reverse_iteratorIPS9_EEEC2B8ne180100ERSA_RSD_SG_, symObjAddr: 0x74DC, symBinAddr: 0x100007EFC, symSize: 0x38 }
  - { offset: 0x2252B, size: 0x8, addend: 0x0, symName: __ZNSt3__128__exception_guard_exceptionsINS_29_AllocatorDestroyRangeReverseINS_9allocatorINS_6vectorINS_12basic_stringIcNS_11char_traitsIcEENS2_IcEEEENS2_IS8_EEEEEENS_16reverse_iteratorIPSA_EEEEED2B8ne180100Ev, symObjAddr: 0x7514, symBinAddr: 0x100007F34, symSize: 0x50 }
  - { offset: 0x22555, size: 0x8, addend: 0x0, symName: __ZNKSt3__129_AllocatorDestroyRangeReverseINS_9allocatorINS_6vectorINS_12basic_stringIcNS_11char_traitsIcEENS1_IcEEEENS1_IS7_EEEEEENS_16reverse_iteratorIPS9_EEEclB8ne180100Ev, symObjAddr: 0x7564, symBinAddr: 0x100007F84, symSize: 0xB4 }
  - { offset: 0x2257C, size: 0x8, addend: 0x0, symName: __ZNSt3__116reverse_iteratorINS0_IPNS_6vectorINS_12basic_stringIcNS_11char_traitsIcEENS_9allocatorIcEEEENS5_IS7_EEEEEEEC1B8ne180100ESB_, symObjAddr: 0x7688, symBinAddr: 0x1000080A8, symSize: 0x3C }
  - { offset: 0x225B4, size: 0x8, addend: 0x0, symName: __ZNSt3__116reverse_iteratorINS0_IPNS_6vectorINS_12basic_stringIcNS_11char_traitsIcEENS_9allocatorIcEEEENS5_IS7_EEEEEEEppB8ne180100Ev, symObjAddr: 0x7748, symBinAddr: 0x100008168, symSize: 0x30 }
  - { offset: 0x225DA, size: 0x8, addend: 0x0, symName: __ZNKSt3__116reverse_iteratorINS0_IPNS_6vectorINS_12basic_stringIcNS_11char_traitsIcEENS_9allocatorIcEEEENS5_IS7_EEEEEEE4baseB8ne180100Ev, symObjAddr: 0x7778, symBinAddr: 0x100008198, symSize: 0x24 }
  - { offset: 0x22606, size: 0x8, addend: 0x0, symName: __ZNSt3__119__to_address_helperINS_16reverse_iteratorINS1_IPNS_6vectorINS_12basic_stringIcNS_11char_traitsIcEENS_9allocatorIcEEEENS6_IS8_EEEEEEEEvE6__callB8ne180100ERKSD_, symObjAddr: 0x779C, symBinAddr: 0x1000081BC, symSize: 0x38 }
  - { offset: 0x22629, size: 0x8, addend: 0x0, symName: __ZNKSt3__116reverse_iteratorINS0_IPNS_6vectorINS_12basic_stringIcNS_11char_traitsIcEENS_9allocatorIcEEEENS5_IS7_EEEEEEEptB8ne180100Ev, symObjAddr: 0x77D4, symBinAddr: 0x1000081F4, symSize: 0x24 }
  - { offset: 0x2264F, size: 0x8, addend: 0x0, symName: __ZNKSt3__116reverse_iteratorINS0_IPNS_6vectorINS_12basic_stringIcNS_11char_traitsIcEENS_9allocatorIcEEEENS5_IS7_EEEEEEEdeB8ne180100Ev, symObjAddr: 0x77F8, symBinAddr: 0x100008218, symSize: 0x34 }
  - { offset: 0x22683, size: 0x8, addend: 0x0, symName: __ZNSt3__116reverse_iteratorIPNS_6vectorINS_12basic_stringIcNS_11char_traitsIcEENS_9allocatorIcEEEENS5_IS7_EEEEEmmB8ne180100Ev, symObjAddr: 0x782C, symBinAddr: 0x10000824C, symSize: 0x20 }
  - { offset: 0x226A9, size: 0x8, addend: 0x0, symName: __ZNSt3__116reverse_iteratorINS0_IPNS_6vectorINS_12basic_stringIcNS_11char_traitsIcEENS_9allocatorIcEEEENS5_IS7_EEEEEEEC2B8ne180100ESB_, symObjAddr: 0x784C, symBinAddr: 0x10000826C, symSize: 0x2C }
  - { offset: 0x226E1, size: 0x8, addend: 0x0, symName: __ZNSt3__114__split_bufferINS_6vectorINS_12basic_stringIcNS_11char_traitsIcEENS_9allocatorIcEEEENS5_IS7_EEEERNS5_IS9_EEED2Ev, symObjAddr: 0x7878, symBinAddr: 0x100008298, symSize: 0x8C }
  - { offset: 0x2270D, size: 0x8, addend: 0x0, symName: __ZNSt3__114__split_bufferINS_6vectorINS_12basic_stringIcNS_11char_traitsIcEENS_9allocatorIcEEEENS5_IS7_EEEERNS5_IS9_EEE5clearB8ne180100Ev, symObjAddr: 0x7904, symBinAddr: 0x100008324, symSize: 0x28 }
  - { offset: 0x22733, size: 0x8, addend: 0x0, symName: __ZNKSt3__114__split_bufferINS_6vectorINS_12basic_stringIcNS_11char_traitsIcEENS_9allocatorIcEEEENS5_IS7_EEEERNS5_IS9_EEE8capacityB8ne180100Ev, symObjAddr: 0x792C, symBinAddr: 0x10000834C, symSize: 0x40 }
  - { offset: 0x22759, size: 0x8, addend: 0x0, symName: __ZNSt3__114__split_bufferINS_6vectorINS_12basic_stringIcNS_11char_traitsIcEENS_9allocatorIcEEEENS5_IS7_EEEERNS5_IS9_EEE17__destruct_at_endB8ne180100EPS9_, symObjAddr: 0x796C, symBinAddr: 0x10000838C, symSize: 0x2C }
  - { offset: 0x2278D, size: 0x8, addend: 0x0, symName: __ZNSt3__114__split_bufferINS_6vectorINS_12basic_stringIcNS_11char_traitsIcEENS_9allocatorIcEEEENS5_IS7_EEEERNS5_IS9_EEE17__destruct_at_endB8ne180100EPS9_NS_17integral_constantIbLb0EEE, symObjAddr: 0x7998, symBinAddr: 0x1000083B8, symSize: 0x80 }
  - { offset: 0x227CD, size: 0x8, addend: 0x0, symName: __ZNKSt3__114__split_bufferINS_6vectorINS_12basic_stringIcNS_11char_traitsIcEENS_9allocatorIcEEEENS5_IS7_EEEERNS5_IS9_EEE9__end_capB8ne180100Ev, symObjAddr: 0x7A18, symBinAddr: 0x100008438, symSize: 0x28 }
  - { offset: 0x227F3, size: 0x8, addend: 0x0, symName: __ZNKSt3__117__compressed_pairIPNS_6vectorINS_12basic_stringIcNS_11char_traitsIcEENS_9allocatorIcEEEENS5_IS7_EEEERNS5_IS9_EEE5firstB8ne180100Ev, symObjAddr: 0x7A40, symBinAddr: 0x100008460, symSize: 0x24 }
  - { offset: 0x22819, size: 0x8, addend: 0x0, symName: __ZNKSt3__16vectorINS_12basic_stringIcNS_11char_traitsIcEENS_9allocatorIcEEEENS4_IS6_EEE17__annotate_shrinkB8ne180100Em, symObjAddr: 0x7A64, symBinAddr: 0x100008484, symSize: 0x14 }
  - { offset: 0x2284E, size: 0x8, addend: 0x0, symName: __ZNSt3__16vectorINS_12basic_stringIcNS_11char_traitsIcEENS_9allocatorIcEEEENS4_IS6_EEE22__construct_one_at_endB8ne180100IJRKS6_EEEvDpOT_, symObjAddr: 0x7A78, symBinAddr: 0x100008498, symSize: 0x90 }
  - { offset: 0x2289D, size: 0x8, addend: 0x0, symName: __ZNSt3__16vectorINS_12basic_stringIcNS_11char_traitsIcEENS_9allocatorIcEEEENS4_IS6_EEE21__push_back_slow_pathIRKS6_EEPS6_OT_, symObjAddr: 0x7B08, symBinAddr: 0x100008528, symSize: 0xE8 }
  - { offset: 0x228FB, size: 0x8, addend: 0x0, symName: __ZNSt3__116allocator_traitsINS_9allocatorINS_12basic_stringIcNS_11char_traitsIcEENS1_IcEEEEEEE9constructB8ne180100IS6_JRKS6_EvEEvRS7_PT_DpOT0_, symObjAddr: 0x7BF0, symBinAddr: 0x100008610, symSize: 0x34 }
  - { offset: 0x22952, size: 0x8, addend: 0x0, symName: __ZNSt3__19allocatorINS_12basic_stringIcNS_11char_traitsIcEENS0_IcEEEEE9constructB8ne180100IS5_JRKS5_EEEvPT_DpOT0_, symObjAddr: 0x7C24, symBinAddr: 0x100008644, symSize: 0x30 }
  - { offset: 0x229A8, size: 0x8, addend: 0x0, symName: __ZNKSt3__16vectorINS_12basic_stringIcNS_11char_traitsIcEENS_9allocatorIcEEEENS4_IS6_EEE11__recommendB8ne180100Em, symObjAddr: 0x7C54, symBinAddr: 0x100008674, symSize: 0xB4 }
  - { offset: 0x229FD, size: 0x8, addend: 0x0, symName: __ZNSt3__114__split_bufferINS_12basic_stringIcNS_11char_traitsIcEENS_9allocatorIcEEEERNS4_IS6_EEEC1EmmS8_, symObjAddr: 0x7D08, symBinAddr: 0x100008728, symSize: 0x44 }
  - { offset: 0x22A53, size: 0x8, addend: 0x0, symName: __ZNSt3__114__split_bufferINS_12basic_stringIcNS_11char_traitsIcEENS_9allocatorIcEEEERNS4_IS6_EEED1Ev, symObjAddr: 0x7E5C, symBinAddr: 0x10000887C, symSize: 0x2C }
  - { offset: 0x22A7F, size: 0x8, addend: 0x0, symName: __ZNSt3__114__split_bufferINS_12basic_stringIcNS_11char_traitsIcEENS_9allocatorIcEEEERNS4_IS6_EEEC2EmmS8_, symObjAddr: 0x7E88, symBinAddr: 0x1000088A8, symSize: 0xE0 }
  - { offset: 0x22AF2, size: 0x8, addend: 0x0, symName: __ZNSt3__117__compressed_pairIPNS_12basic_stringIcNS_11char_traitsIcEENS_9allocatorIcEEEERNS4_IS6_EEEC1B8ne180100IDnS9_EEOT_OT0_, symObjAddr: 0x7F68, symBinAddr: 0x100008988, symSize: 0x3C }
  - { offset: 0x22B4A, size: 0x8, addend: 0x0, symName: __ZNSt3__114__split_bufferINS_12basic_stringIcNS_11char_traitsIcEENS_9allocatorIcEEEERNS4_IS6_EEE7__allocB8ne180100Ev, symObjAddr: 0x7FA4, symBinAddr: 0x1000089C4, symSize: 0x28 }
  - { offset: 0x22B70, size: 0x8, addend: 0x0, symName: __ZNSt3__114__split_bufferINS_12basic_stringIcNS_11char_traitsIcEENS_9allocatorIcEEEERNS4_IS6_EEE9__end_capB8ne180100Ev, symObjAddr: 0x7FCC, symBinAddr: 0x1000089EC, symSize: 0x28 }
  - { offset: 0x22B96, size: 0x8, addend: 0x0, symName: __ZNSt3__117__compressed_pairIPNS_12basic_stringIcNS_11char_traitsIcEENS_9allocatorIcEEEERNS4_IS6_EEEC2B8ne180100IDnS9_EEOT_OT0_, symObjAddr: 0x7FF4, symBinAddr: 0x100008A14, symSize: 0x48 }
  - { offset: 0x22BEE, size: 0x8, addend: 0x0, symName: __ZNSt3__122__compressed_pair_elemIRNS_9allocatorINS_12basic_stringIcNS_11char_traitsIcEENS1_IcEEEEEELi1ELb0EEC2B8ne180100IS8_vEEOT_, symObjAddr: 0x803C, symBinAddr: 0x100008A5C, symSize: 0x20 }
  - { offset: 0x22C30, size: 0x8, addend: 0x0, symName: __ZNSt3__117__compressed_pairIPNS_12basic_stringIcNS_11char_traitsIcEENS_9allocatorIcEEEERNS4_IS6_EEE6secondB8ne180100Ev, symObjAddr: 0x805C, symBinAddr: 0x100008A7C, symSize: 0x28 }
  - { offset: 0x22C56, size: 0x8, addend: 0x0, symName: __ZNSt3__122__compressed_pair_elemIRNS_9allocatorINS_12basic_stringIcNS_11char_traitsIcEENS1_IcEEEEEELi1ELb0EE5__getB8ne180100Ev, symObjAddr: 0x8084, symBinAddr: 0x100008AA4, symSize: 0x18 }
  - { offset: 0x22C7C, size: 0x8, addend: 0x0, symName: __ZNSt3__117__compressed_pairIPNS_12basic_stringIcNS_11char_traitsIcEENS_9allocatorIcEEEERNS4_IS6_EEE5firstB8ne180100Ev, symObjAddr: 0x809C, symBinAddr: 0x100008ABC, symSize: 0x24 }
  - { offset: 0x22CA2, size: 0x8, addend: 0x0, symName: __ZNSt3__129_AllocatorDestroyRangeReverseINS_9allocatorINS_12basic_stringIcNS_11char_traitsIcEENS1_IcEEEEEENS_16reverse_iteratorIPS6_EEEC1B8ne180100ERS7_RSA_SD_, symObjAddr: 0x8264, symBinAddr: 0x100008C84, symSize: 0x44 }
  - { offset: 0x22CFF, size: 0x8, addend: 0x0, symName: __ZNSt3__116allocator_traitsINS_9allocatorINS_12basic_stringIcNS_11char_traitsIcEENS1_IcEEEEEEE9constructB8ne180100IS6_JS6_EvEEvRS7_PT_DpOT0_, symObjAddr: 0x82A8, symBinAddr: 0x100008CC8, symSize: 0x34 }
  - { offset: 0x22D56, size: 0x8, addend: 0x0, symName: __ZNSt3__128__exception_guard_exceptionsINS_29_AllocatorDestroyRangeReverseINS_9allocatorINS_12basic_stringIcNS_11char_traitsIcEENS2_IcEEEEEENS_16reverse_iteratorIPS7_EEEEE10__completeB8ne180100Ev, symObjAddr: 0x82DC, symBinAddr: 0x100008CFC, symSize: 0x1C }
  - { offset: 0x22D7C, size: 0x8, addend: 0x0, symName: __ZNSt3__128__exception_guard_exceptionsINS_29_AllocatorDestroyRangeReverseINS_9allocatorINS_12basic_stringIcNS_11char_traitsIcEENS2_IcEEEEEENS_16reverse_iteratorIPS7_EEEEED1B8ne180100Ev, symObjAddr: 0x82F8, symBinAddr: 0x100008D18, symSize: 0x2C }
  - { offset: 0x22DA6, size: 0x8, addend: 0x0, symName: __ZNSt3__128__exception_guard_exceptionsINS_29_AllocatorDestroyRangeReverseINS_9allocatorINS_12basic_stringIcNS_11char_traitsIcEENS2_IcEEEEEENS_16reverse_iteratorIPS7_EEEEEC1B8ne180100ESC_, symObjAddr: 0x8324, symBinAddr: 0x100008D44, symSize: 0x34 }
  - { offset: 0x22DDF, size: 0x8, addend: 0x0, symName: __ZNSt3__128__exception_guard_exceptionsINS_29_AllocatorDestroyRangeReverseINS_9allocatorINS_12basic_stringIcNS_11char_traitsIcEENS2_IcEEEEEENS_16reverse_iteratorIPS7_EEEEEC2B8ne180100ESC_, symObjAddr: 0x8358, symBinAddr: 0x100008D78, symSize: 0x30 }
  - { offset: 0x22E18, size: 0x8, addend: 0x0, symName: __ZNSt3__129_AllocatorDestroyRangeReverseINS_9allocatorINS_12basic_stringIcNS_11char_traitsIcEENS1_IcEEEEEENS_16reverse_iteratorIPS6_EEEC2B8ne180100ERS7_RSA_SD_, symObjAddr: 0x8388, symBinAddr: 0x100008DA8, symSize: 0x38 }
  - { offset: 0x22E6F, size: 0x8, addend: 0x0, symName: __ZNSt3__19allocatorINS_12basic_stringIcNS_11char_traitsIcEENS0_IcEEEEE9constructB8ne180100IS5_JS5_EEEvPT_DpOT0_, symObjAddr: 0x83C0, symBinAddr: 0x100008DE0, symSize: 0x30 }
  - { offset: 0x22EC5, size: 0x8, addend: 0x0, symName: __ZNSt3__112basic_stringIcNS_11char_traitsIcEENS_9allocatorIcEEEC1B8ne180100EOS5_, symObjAddr: 0x83F0, symBinAddr: 0x100008E10, symSize: 0x34 }
  - { offset: 0x22EFE, size: 0x8, addend: 0x0, symName: __ZNSt3__112basic_stringIcNS_11char_traitsIcEENS_9allocatorIcEEEC2B8ne180100EOS5_, symObjAddr: 0x8424, symBinAddr: 0x100008E44, symSize: 0xB8 }
  - { offset: 0x22F68, size: 0x8, addend: 0x0, symName: __ZZNSt3__112basic_stringIcNS_11char_traitsIcEENS_9allocatorIcEEEC1B8ne180100EOS5_ENKUlRS5_E_clES7_, symObjAddr: 0x84DC, symBinAddr: 0x100008EFC, symSize: 0x40 }
  - { offset: 0x22FA1, size: 0x8, addend: 0x0, symName: __ZNKSt3__112basic_stringIcNS_11char_traitsIcEENS_9allocatorIcEEE17__annotate_deleteB8ne180100Ev, symObjAddr: 0x851C, symBinAddr: 0x100008F3C, symSize: 0x10 }
  - { offset: 0x22FC7, size: 0x8, addend: 0x0, symName: __ZNSt3__128__exception_guard_exceptionsINS_29_AllocatorDestroyRangeReverseINS_9allocatorINS_12basic_stringIcNS_11char_traitsIcEENS2_IcEEEEEENS_16reverse_iteratorIPS7_EEEEED2B8ne180100Ev, symObjAddr: 0x852C, symBinAddr: 0x100008F4C, symSize: 0x50 }
  - { offset: 0x22FF1, size: 0x8, addend: 0x0, symName: __ZNKSt3__129_AllocatorDestroyRangeReverseINS_9allocatorINS_12basic_stringIcNS_11char_traitsIcEENS1_IcEEEEEENS_16reverse_iteratorIPS6_EEEclB8ne180100Ev, symObjAddr: 0x857C, symBinAddr: 0x100008F9C, symSize: 0xB4 }
  - { offset: 0x23018, size: 0x8, addend: 0x0, symName: __ZNSt3__116reverse_iteratorINS0_IPNS_12basic_stringIcNS_11char_traitsIcEENS_9allocatorIcEEEEEEEC1B8ne180100ES8_, symObjAddr: 0x86A0, symBinAddr: 0x1000090C0, symSize: 0x3C }
  - { offset: 0x23050, size: 0x8, addend: 0x0, symName: __ZNSt3__116reverse_iteratorINS0_IPNS_12basic_stringIcNS_11char_traitsIcEENS_9allocatorIcEEEEEEEppB8ne180100Ev, symObjAddr: 0x8760, symBinAddr: 0x100009180, symSize: 0x30 }
  - { offset: 0x23076, size: 0x8, addend: 0x0, symName: __ZNKSt3__116reverse_iteratorINS0_IPNS_12basic_stringIcNS_11char_traitsIcEENS_9allocatorIcEEEEEEE4baseB8ne180100Ev, symObjAddr: 0x8790, symBinAddr: 0x1000091B0, symSize: 0x24 }
  - { offset: 0x230A2, size: 0x8, addend: 0x0, symName: __ZNSt3__119__to_address_helperINS_16reverse_iteratorINS1_IPNS_12basic_stringIcNS_11char_traitsIcEENS_9allocatorIcEEEEEEEEvE6__callB8ne180100ERKSA_, symObjAddr: 0x87B4, symBinAddr: 0x1000091D4, symSize: 0x38 }
  - { offset: 0x230C5, size: 0x8, addend: 0x0, symName: __ZNKSt3__116reverse_iteratorINS0_IPNS_12basic_stringIcNS_11char_traitsIcEENS_9allocatorIcEEEEEEEptB8ne180100Ev, symObjAddr: 0x87EC, symBinAddr: 0x10000920C, symSize: 0x24 }
  - { offset: 0x230EB, size: 0x8, addend: 0x0, symName: __ZNKSt3__116reverse_iteratorINS0_IPNS_12basic_stringIcNS_11char_traitsIcEENS_9allocatorIcEEEEEEEdeB8ne180100Ev, symObjAddr: 0x8810, symBinAddr: 0x100009230, symSize: 0x34 }
  - { offset: 0x2311F, size: 0x8, addend: 0x0, symName: __ZNSt3__116reverse_iteratorIPNS_12basic_stringIcNS_11char_traitsIcEENS_9allocatorIcEEEEEmmB8ne180100Ev, symObjAddr: 0x8844, symBinAddr: 0x100009264, symSize: 0x20 }
  - { offset: 0x23145, size: 0x8, addend: 0x0, symName: __ZNSt3__116reverse_iteratorINS0_IPNS_12basic_stringIcNS_11char_traitsIcEENS_9allocatorIcEEEEEEEC2B8ne180100ES8_, symObjAddr: 0x8864, symBinAddr: 0x100009284, symSize: 0x2C }
  - { offset: 0x2317D, size: 0x8, addend: 0x0, symName: __ZNSt3__114__split_bufferINS_12basic_stringIcNS_11char_traitsIcEENS_9allocatorIcEEEERNS4_IS6_EEED2Ev, symObjAddr: 0x8890, symBinAddr: 0x1000092B0, symSize: 0x8C }
  - { offset: 0x231A9, size: 0x8, addend: 0x0, symName: __ZNSt3__114__split_bufferINS_12basic_stringIcNS_11char_traitsIcEENS_9allocatorIcEEEERNS4_IS6_EEE5clearB8ne180100Ev, symObjAddr: 0x891C, symBinAddr: 0x10000933C, symSize: 0x28 }
  - { offset: 0x231CF, size: 0x8, addend: 0x0, symName: __ZNKSt3__114__split_bufferINS_12basic_stringIcNS_11char_traitsIcEENS_9allocatorIcEEEERNS4_IS6_EEE8capacityB8ne180100Ev, symObjAddr: 0x8944, symBinAddr: 0x100009364, symSize: 0x40 }
  - { offset: 0x231F5, size: 0x8, addend: 0x0, symName: __ZNSt3__114__split_bufferINS_12basic_stringIcNS_11char_traitsIcEENS_9allocatorIcEEEERNS4_IS6_EEE17__destruct_at_endB8ne180100EPS6_, symObjAddr: 0x8984, symBinAddr: 0x1000093A4, symSize: 0x2C }
  - { offset: 0x23229, size: 0x8, addend: 0x0, symName: __ZNSt3__114__split_bufferINS_12basic_stringIcNS_11char_traitsIcEENS_9allocatorIcEEEERNS4_IS6_EEE17__destruct_at_endB8ne180100EPS6_NS_17integral_constantIbLb0EEE, symObjAddr: 0x89B0, symBinAddr: 0x1000093D0, symSize: 0x80 }
  - { offset: 0x23269, size: 0x8, addend: 0x0, symName: __ZNKSt3__114__split_bufferINS_12basic_stringIcNS_11char_traitsIcEENS_9allocatorIcEEEERNS4_IS6_EEE9__end_capB8ne180100Ev, symObjAddr: 0x8A30, symBinAddr: 0x100009450, symSize: 0x28 }
  - { offset: 0x2328F, size: 0x8, addend: 0x0, symName: __ZNKSt3__117__compressed_pairIPNS_12basic_stringIcNS_11char_traitsIcEENS_9allocatorIcEEEERNS4_IS6_EEE5firstB8ne180100Ev, symObjAddr: 0x8A58, symBinAddr: 0x100009478, symSize: 0x24 }
  - { offset: 0x232B5, size: 0x8, addend: 0x0, symName: __ZNSt3__16vectorINS0_IiNS_9allocatorIiEEEENS1_IS3_EEEC2B8ne180100Ev, symObjAddr: 0x8A7C, symBinAddr: 0x10000949C, symSize: 0x4C }
  - { offset: 0x232DF, size: 0x8, addend: 0x0, symName: __ZNSt3__117__compressed_pairIPNS_6vectorIiNS_9allocatorIiEEEENS2_IS4_EEEC1B8ne180100IDnNS_18__default_init_tagEEEOT_OT0_, symObjAddr: 0x8AC8, symBinAddr: 0x1000094E8, symSize: 0x3C }
  - { offset: 0x23337, size: 0x8, addend: 0x0, symName: __ZNSt3__117__compressed_pairIPNS_6vectorIiNS_9allocatorIiEEEENS2_IS4_EEEC2B8ne180100IDnNS_18__default_init_tagEEEOT_OT0_, symObjAddr: 0x8B04, symBinAddr: 0x100009524, symSize: 0x40 }
  - { offset: 0x2338F, size: 0x8, addend: 0x0, symName: __ZNSt3__122__compressed_pair_elemIPNS_6vectorIiNS_9allocatorIiEEEELi0ELb0EEC2B8ne180100IDnvEEOT_, symObjAddr: 0x8B44, symBinAddr: 0x100009564, symSize: 0x1C }
  - { offset: 0x233D1, size: 0x8, addend: 0x0, symName: __ZNSt3__122__compressed_pair_elemINS_9allocatorINS_6vectorIiNS1_IiEEEEEELi1ELb1EEC2B8ne180100ENS_18__default_init_tagE, symObjAddr: 0x8B60, symBinAddr: 0x100009580, symSize: 0x2C }
  - { offset: 0x23405, size: 0x8, addend: 0x0, symName: __ZNSt3__19allocatorINS_6vectorIiNS0_IiEEEEEC2B8ne180100Ev, symObjAddr: 0x8B8C, symBinAddr: 0x1000095AC, symSize: 0x2C }
  - { offset: 0x2342F, size: 0x8, addend: 0x0, symName: __ZNSt3__116__non_trivial_ifILb1ENS_9allocatorINS_6vectorIiNS1_IiEEEEEEEC2B8ne180100Ev, symObjAddr: 0x8BB8, symBinAddr: 0x1000095D8, symSize: 0x14 }
  - { offset: 0x23459, size: 0x8, addend: 0x0, symName: __ZNSt3__16vectorINS0_IiNS_9allocatorIiEEEENS1_IS3_EEED2B8ne180100Ev, symObjAddr: 0x8BCC, symBinAddr: 0x1000095EC, symSize: 0x44 }
  - { offset: 0x23483, size: 0x8, addend: 0x0, symName: __ZNSt3__16vectorINS0_IiNS_9allocatorIiEEEENS1_IS3_EEE16__destroy_vectorC1B8ne180100ERS5_, symObjAddr: 0x8C10, symBinAddr: 0x100009630, symSize: 0x34 }
  - { offset: 0x234BC, size: 0x8, addend: 0x0, symName: __ZNSt3__16vectorINS0_IiNS_9allocatorIiEEEENS1_IS3_EEE16__destroy_vectorclB8ne180100Ev, symObjAddr: 0x8C44, symBinAddr: 0x100009664, symSize: 0x90 }
  - { offset: 0x234E2, size: 0x8, addend: 0x0, symName: __ZNSt3__16vectorINS0_IiNS_9allocatorIiEEEENS1_IS3_EEE16__destroy_vectorC2B8ne180100ERS5_, symObjAddr: 0x8CD4, symBinAddr: 0x1000096F4, symSize: 0x20 }
  - { offset: 0x2351B, size: 0x8, addend: 0x0, symName: __ZNSt3__16vectorINS0_IiNS_9allocatorIiEEEENS1_IS3_EEE7__clearB8ne180100Ev, symObjAddr: 0x8CF4, symBinAddr: 0x100009714, symSize: 0x28 }
  - { offset: 0x23541, size: 0x8, addend: 0x0, symName: __ZNKSt3__16vectorINS0_IiNS_9allocatorIiEEEENS1_IS3_EEE17__annotate_deleteB8ne180100Ev, symObjAddr: 0x8D1C, symBinAddr: 0x10000973C, symSize: 0x10 }
  - { offset: 0x23567, size: 0x8, addend: 0x0, symName: __ZNSt3__116allocator_traitsINS_9allocatorINS_6vectorIiNS1_IiEEEEEEE10deallocateB8ne180100ERS5_PS4_m, symObjAddr: 0x8D2C, symBinAddr: 0x10000974C, symSize: 0x34 }
  - { offset: 0x235A9, size: 0x8, addend: 0x0, symName: __ZNSt3__16vectorINS0_IiNS_9allocatorIiEEEENS1_IS3_EEE7__allocB8ne180100Ev, symObjAddr: 0x8D60, symBinAddr: 0x100009780, symSize: 0x28 }
  - { offset: 0x235CF, size: 0x8, addend: 0x0, symName: __ZNKSt3__16vectorINS0_IiNS_9allocatorIiEEEENS1_IS3_EEE8capacityB8ne180100Ev, symObjAddr: 0x8D88, symBinAddr: 0x1000097A8, symSize: 0x40 }
  - { offset: 0x235F5, size: 0x8, addend: 0x0, symName: __ZNSt3__16vectorINS0_IiNS_9allocatorIiEEEENS1_IS3_EEE22__base_destruct_at_endB8ne180100EPS3_, symObjAddr: 0x8DC8, symBinAddr: 0x1000097E8, symSize: 0x8C }
  - { offset: 0x23639, size: 0x8, addend: 0x0, symName: __ZNSt3__116allocator_traitsINS_9allocatorINS_6vectorIiNS1_IiEEEEEEE7destroyB8ne180100IS4_vEEvRS5_PT_, symObjAddr: 0x8E54, symBinAddr: 0x100009874, symSize: 0x2C }
  - { offset: 0x23676, size: 0x8, addend: 0x0, symName: __ZNSt3__19allocatorINS_6vectorIiNS0_IiEEEEE7destroyB8ne180100EPS3_, symObjAddr: 0x8E94, symBinAddr: 0x1000098B4, symSize: 0x28 }
  - { offset: 0x236AA, size: 0x8, addend: 0x0, symName: __ZNSt3__19allocatorINS_6vectorIiNS0_IiEEEEE10deallocateB8ne180100EPS3_m, symObjAddr: 0x8EBC, symBinAddr: 0x1000098DC, symSize: 0x44 }
  - { offset: 0x236EC, size: 0x8, addend: 0x0, symName: __ZNSt3__117__compressed_pairIPNS_6vectorIiNS_9allocatorIiEEEENS2_IS4_EEE6secondB8ne180100Ev, symObjAddr: 0x8F00, symBinAddr: 0x100009920, symSize: 0x24 }
  - { offset: 0x23712, size: 0x8, addend: 0x0, symName: __ZNSt3__122__compressed_pair_elemINS_9allocatorINS_6vectorIiNS1_IiEEEEEELi1ELb1EE5__getB8ne180100Ev, symObjAddr: 0x8F24, symBinAddr: 0x100009944, symSize: 0x14 }
  - { offset: 0x23738, size: 0x8, addend: 0x0, symName: __ZNKSt3__16vectorINS0_IiNS_9allocatorIiEEEENS1_IS3_EEE9__end_capB8ne180100Ev, symObjAddr: 0x8F38, symBinAddr: 0x100009958, symSize: 0x28 }
  - { offset: 0x2375E, size: 0x8, addend: 0x0, symName: __ZNKSt3__117__compressed_pairIPNS_6vectorIiNS_9allocatorIiEEEENS2_IS4_EEE5firstB8ne180100Ev, symObjAddr: 0x8F60, symBinAddr: 0x100009980, symSize: 0x24 }
  - { offset: 0x23784, size: 0x8, addend: 0x0, symName: __ZNKSt3__122__compressed_pair_elemIPNS_6vectorIiNS_9allocatorIiEEEELi0ELb0EE5__getB8ne180100Ev, symObjAddr: 0x8F84, symBinAddr: 0x1000099A4, symSize: 0x14 }
  - { offset: 0x237AA, size: 0x8, addend: 0x0, symName: __ZNKSt3__16vectorINS0_INS_12basic_stringIcNS_11char_traitsIcEENS_9allocatorIcEEEENS4_IS6_EEEENS4_IS8_EEE11__make_iterB8ne180100EPKS8_, symObjAddr: 0x8F98, symBinAddr: 0x1000099B8, symSize: 0x30 }
  - { offset: 0x237DF, size: 0x8, addend: 0x0, symName: __ZNSt3__111__wrap_iterIPKNS_6vectorINS_12basic_stringIcNS_11char_traitsIcEENS_9allocatorIcEEEENS5_IS7_EEEEEC1B8ne180100ESB_, symObjAddr: 0x8FC8, symBinAddr: 0x1000099E8, symSize: 0x34 }
  - { offset: 0x23817, size: 0x8, addend: 0x0, symName: __ZNSt3__111__wrap_iterIPKNS_6vectorINS_12basic_stringIcNS_11char_traitsIcEENS_9allocatorIcEEEENS5_IS7_EEEEEC2B8ne180100ESB_, symObjAddr: 0x8FFC, symBinAddr: 0x100009A1C, symSize: 0x20 }
  - { offset: 0x2384F, size: 0x8, addend: 0x0, symName: __ZNSt3__16vectorINS_12basic_stringIcNS_11char_traitsIcEENS_9allocatorIcEEEENS4_IS6_EEEC2ERKS8_, symObjAddr: 0x901C, symBinAddr: 0x100009A3C, symSize: 0x94 }
  - { offset: 0x2388A, size: 0x8, addend: 0x0, symName: __ZNSt3__116allocator_traitsINS_9allocatorINS_12basic_stringIcNS_11char_traitsIcEENS1_IcEEEEEEE37select_on_container_copy_constructionB8ne180100IS7_vvEES7_RKS7_, symObjAddr: 0x90B0, symBinAddr: 0x100009AD0, symSize: 0x10 }
  - { offset: 0x238B9, size: 0x8, addend: 0x0, symName: __ZNSt3__16vectorINS_12basic_stringIcNS_11char_traitsIcEENS_9allocatorIcEEEENS4_IS6_EEE16__init_with_sizeB8ne180100IPS6_SA_EEvT_T0_m, symObjAddr: 0x90C0, symBinAddr: 0x100009AE0, symSize: 0xB8 }
  - { offset: 0x2392D, size: 0x8, addend: 0x0, symName: __ZNSt3__16vectorINS_12basic_stringIcNS_11char_traitsIcEENS_9allocatorIcEEEENS4_IS6_EEE18__construct_at_endIPS6_SA_EEvT_T0_m, symObjAddr: 0x9178, symBinAddr: 0x100009B98, symSize: 0x8C }
  - { offset: 0x239A3, size: 0x8, addend: 0x0, symName: __ZNSt3__16vectorIiNS_9allocatorIiEEEC2B8ne180100Ev, symObjAddr: 0x92E4, symBinAddr: 0x100009D04, symSize: 0x4C }
  - { offset: 0x239CD, size: 0x8, addend: 0x0, symName: __ZNSt3__117__compressed_pairIPiNS_9allocatorIiEEEC1B8ne180100IDnNS_18__default_init_tagEEEOT_OT0_, symObjAddr: 0x9330, symBinAddr: 0x100009D50, symSize: 0x3C }
  - { offset: 0x23A25, size: 0x8, addend: 0x0, symName: __ZNSt3__117__compressed_pairIPiNS_9allocatorIiEEEC2B8ne180100IDnNS_18__default_init_tagEEEOT_OT0_, symObjAddr: 0x936C, symBinAddr: 0x100009D8C, symSize: 0x40 }
  - { offset: 0x23A7D, size: 0x8, addend: 0x0, symName: __ZNSt3__122__compressed_pair_elemINS_9allocatorIiEELi1ELb1EEC2B8ne180100ENS_18__default_init_tagE, symObjAddr: 0x93AC, symBinAddr: 0x100009DCC, symSize: 0x2C }
  - { offset: 0x23AB1, size: 0x8, addend: 0x0, symName: __ZNSt3__19allocatorIiEC2B8ne180100Ev, symObjAddr: 0x93D8, symBinAddr: 0x100009DF8, symSize: 0x2C }
  - { offset: 0x23ADB, size: 0x8, addend: 0x0, symName: __ZNSt3__116__non_trivial_ifILb1ENS_9allocatorIiEEEC2B8ne180100Ev, symObjAddr: 0x9404, symBinAddr: 0x100009E24, symSize: 0x14 }
  - { offset: 0x23B05, size: 0x8, addend: 0x0, symName: __ZNSt3__16vectorIiNS_9allocatorIiEEED2B8ne180100Ev, symObjAddr: 0x9418, symBinAddr: 0x100009E38, symSize: 0x40 }
  - { offset: 0x23B2F, size: 0x8, addend: 0x0, symName: __ZNKSt3__112basic_stringIcNS_11char_traitsIcEENS_9allocatorIcEEE15__get_long_sizeB8ne180100Ev, symObjAddr: 0x9458, symBinAddr: 0x100009E78, symSize: 0x28 }
  - { offset: 0x23B55, size: 0x8, addend: 0x0, symName: __ZNKSt3__112basic_stringIcNS_11char_traitsIcEENS_9allocatorIcEEE16__get_short_sizeB8ne180100Ev, symObjAddr: 0x9480, symBinAddr: 0x100009EA0, symSize: 0x34 }
  - { offset: 0x23B7B, size: 0x8, addend: 0x0, symName: __ZNSt3__16vectorIiNS_9allocatorIiEEE22__construct_one_at_endB8ne180100IJRKiEEEvDpOT_, symObjAddr: 0x94B4, symBinAddr: 0x100009ED4, symSize: 0x90 }
  - { offset: 0x23BCA, size: 0x8, addend: 0x0, symName: __ZNSt3__16vectorIiNS_9allocatorIiEEE21__push_back_slow_pathIRKiEEPiOT_, symObjAddr: 0x9544, symBinAddr: 0x100009F64, symSize: 0xE8 }
  - { offset: 0x23C28, size: 0x8, addend: 0x0, symName: __ZNSt3__116allocator_traitsINS_9allocatorIiEEE9constructB8ne180100IiJRKiEvEEvRS2_PT_DpOT0_, symObjAddr: 0x962C, symBinAddr: 0x10000A04C, symSize: 0x34 }
  - { offset: 0x23C7F, size: 0x8, addend: 0x0, symName: __ZNSt3__19allocatorIiE9constructB8ne180100IiJRKiEEEvPT_DpOT0_, symObjAddr: 0x9660, symBinAddr: 0x10000A080, symSize: 0x28 }
  - { offset: 0x23CD5, size: 0x8, addend: 0x0, symName: __ZNKSt3__16vectorIiNS_9allocatorIiEEE11__recommendB8ne180100Em, symObjAddr: 0x9688, symBinAddr: 0x10000A0A8, symSize: 0xB4 }
  - { offset: 0x23D2A, size: 0x8, addend: 0x0, symName: __ZNSt3__114__split_bufferIiRNS_9allocatorIiEEEC1EmmS3_, symObjAddr: 0x973C, symBinAddr: 0x10000A15C, symSize: 0x44 }
  - { offset: 0x23D80, size: 0x8, addend: 0x0, symName: __ZNSt3__114__split_bufferIiRNS_9allocatorIiEEED1Ev, symObjAddr: 0x9890, symBinAddr: 0x10000A2B0, symSize: 0x2C }
  - { offset: 0x23DAC, size: 0x8, addend: 0x0, symName: __ZNSt3__114__split_bufferIiRNS_9allocatorIiEEEC2EmmS3_, symObjAddr: 0x98BC, symBinAddr: 0x10000A2DC, symSize: 0xD4 }
  - { offset: 0x23E1F, size: 0x8, addend: 0x0, symName: __ZNSt3__117__compressed_pairIPiRNS_9allocatorIiEEEC1B8ne180100IDnS4_EEOT_OT0_, symObjAddr: 0x9990, symBinAddr: 0x10000A3B0, symSize: 0x3C }
  - { offset: 0x23E77, size: 0x8, addend: 0x0, symName: __ZNSt3__114__split_bufferIiRNS_9allocatorIiEEE7__allocB8ne180100Ev, symObjAddr: 0x99CC, symBinAddr: 0x10000A3EC, symSize: 0x28 }
  - { offset: 0x23E9D, size: 0x8, addend: 0x0, symName: __ZNSt3__114__split_bufferIiRNS_9allocatorIiEEE9__end_capB8ne180100Ev, symObjAddr: 0x99F4, symBinAddr: 0x10000A414, symSize: 0x28 }
  - { offset: 0x23EC3, size: 0x8, addend: 0x0, symName: __ZNSt3__117__compressed_pairIPiRNS_9allocatorIiEEEC2B8ne180100IDnS4_EEOT_OT0_, symObjAddr: 0x9A1C, symBinAddr: 0x10000A43C, symSize: 0x48 }
  - { offset: 0x23F1B, size: 0x8, addend: 0x0, symName: __ZNSt3__122__compressed_pair_elemIRNS_9allocatorIiEELi1ELb0EEC2B8ne180100IS3_vEEOT_, symObjAddr: 0x9A64, symBinAddr: 0x10000A484, symSize: 0x20 }
  - { offset: 0x23F5D, size: 0x8, addend: 0x0, symName: __ZNSt3__117__compressed_pairIPiRNS_9allocatorIiEEE6secondB8ne180100Ev, symObjAddr: 0x9A84, symBinAddr: 0x10000A4A4, symSize: 0x28 }
  - { offset: 0x23F83, size: 0x8, addend: 0x0, symName: __ZNSt3__122__compressed_pair_elemIRNS_9allocatorIiEELi1ELb0EE5__getB8ne180100Ev, symObjAddr: 0x9AAC, symBinAddr: 0x10000A4CC, symSize: 0x18 }
  - { offset: 0x23FA9, size: 0x8, addend: 0x0, symName: __ZNSt3__117__compressed_pairIPiRNS_9allocatorIiEEE5firstB8ne180100Ev, symObjAddr: 0x9AC4, symBinAddr: 0x10000A4E4, symSize: 0x24 }
  - { offset: 0x23FCF, size: 0x8, addend: 0x0, symName: __ZNSt3__116reverse_iteratorIPiEC1B8ne180100ES1_, symObjAddr: 0x9B60, symBinAddr: 0x10000A580, symSize: 0x34 }
  - { offset: 0x24007, size: 0x8, addend: 0x0, symName: __ZNKSt3__116reverse_iteratorIPiE4baseB8ne180100Ev, symObjAddr: 0x9B94, symBinAddr: 0x10000A5B4, symSize: 0x18 }
  - { offset: 0x24053, size: 0x8, addend: 0x0, symName: __ZNKSt3__111__move_loopINS_17_ClassicAlgPolicyEEclB8ne180100INS_16reverse_iteratorIPiEES6_S6_EENS_4pairIT_T1_EES8_T0_S9_, symObjAddr: 0x9ED8, symBinAddr: 0x10000A8F8, symSize: 0xA0 }
  - { offset: 0x240C4, size: 0x8, addend: 0x0, symName: __ZNSt3__18_IterOpsINS_17_ClassicAlgPolicyEE11__iter_moveB8ne180100IRNS_16reverse_iteratorIPiEELi0EEEDTclsr3stdE4movedeclsr3stdE7declvalIRT_EEEEOS8_, symObjAddr: 0xA10C, symBinAddr: 0x10000AB2C, symSize: 0x28 }
  - { offset: 0x240F6, size: 0x8, addend: 0x0, symName: __ZNKSt3__116reverse_iteratorIPiEdeB8ne180100Ev, symObjAddr: 0xA134, symBinAddr: 0x10000AB54, symSize: 0x28 }
  - { offset: 0x2412A, size: 0x8, addend: 0x0, symName: __ZNSt3__116reverse_iteratorIPiEppB8ne180100Ev, symObjAddr: 0xA15C, symBinAddr: 0x10000AB7C, symSize: 0x20 }
  - { offset: 0x24150, size: 0x8, addend: 0x0, symName: __ZNSt3__18_IterOpsINS_17_ClassicAlgPolicyEE25__validate_iter_referenceB8ne180100IRNS_16reverse_iteratorIPiEEEEvv, symObjAddr: 0xA17C, symBinAddr: 0x10000AB9C, symSize: 0x4 }
  - { offset: 0x2416E, size: 0x8, addend: 0x0, symName: __ZNSt3__118__unwrap_iter_implINS_16reverse_iteratorIPiEELb0EE8__unwrapB8ne180100ES3_, symObjAddr: 0xA180, symBinAddr: 0x10000ABA0, symSize: 0x24 }
  - { offset: 0x24197, size: 0x8, addend: 0x0, symName: __ZNSt3__14pairINS_16reverse_iteratorIPiEES3_EC1B8ne180100IS3_S3_Li0EEEOT_OT0_, symObjAddr: 0xA1A4, symBinAddr: 0x10000ABC4, symSize: 0x3C }
  - { offset: 0x241F5, size: 0x8, addend: 0x0, symName: __ZNSt3__14pairINS_16reverse_iteratorIPiEES3_EC2B8ne180100IS3_S3_Li0EEEOT_OT0_, symObjAddr: 0xA1E0, symBinAddr: 0x10000AC00, symSize: 0x34 }
  - { offset: 0x24253, size: 0x8, addend: 0x0, symName: __ZNSt3__118__unwrap_iter_implINS_16reverse_iteratorIPiEELb0EE8__rewrapB8ne180100ES3_S3_, symObjAddr: 0xA214, symBinAddr: 0x10000AC34, symSize: 0x2C }
  - { offset: 0x24280, size: 0x8, addend: 0x0, symName: __ZNSt3__116reverse_iteratorIPiEC2B8ne180100ES1_, symObjAddr: 0xA240, symBinAddr: 0x10000AC60, symSize: 0x28 }
  - { offset: 0x242B8, size: 0x8, addend: 0x0, symName: __ZNSt3__114__split_bufferIiRNS_9allocatorIiEEED2Ev, symObjAddr: 0xA268, symBinAddr: 0x10000AC88, symSize: 0x8C }
  - { offset: 0x242E4, size: 0x8, addend: 0x0, symName: __ZNSt3__114__split_bufferIiRNS_9allocatorIiEEE5clearB8ne180100Ev, symObjAddr: 0xA2F4, symBinAddr: 0x10000AD14, symSize: 0x28 }
  - { offset: 0x2430A, size: 0x8, addend: 0x0, symName: __ZNKSt3__114__split_bufferIiRNS_9allocatorIiEEE8capacityB8ne180100Ev, symObjAddr: 0xA31C, symBinAddr: 0x10000AD3C, symSize: 0x40 }
  - { offset: 0x24330, size: 0x8, addend: 0x0, symName: __ZNSt3__114__split_bufferIiRNS_9allocatorIiEEE17__destruct_at_endB8ne180100EPi, symObjAddr: 0xA35C, symBinAddr: 0x10000AD7C, symSize: 0x2C }
  - { offset: 0x24364, size: 0x8, addend: 0x0, symName: __ZNSt3__114__split_bufferIiRNS_9allocatorIiEEE17__destruct_at_endB8ne180100EPiNS_17integral_constantIbLb0EEE, symObjAddr: 0xA388, symBinAddr: 0x10000ADA8, symSize: 0x80 }
  - { offset: 0x243A4, size: 0x8, addend: 0x0, symName: __ZNKSt3__114__split_bufferIiRNS_9allocatorIiEEE9__end_capB8ne180100Ev, symObjAddr: 0xA408, symBinAddr: 0x10000AE28, symSize: 0x28 }
  - { offset: 0x243CA, size: 0x8, addend: 0x0, symName: __ZNKSt3__117__compressed_pairIPiRNS_9allocatorIiEEE5firstB8ne180100Ev, symObjAddr: 0xA430, symBinAddr: 0x10000AE50, symSize: 0x24 }
  - { offset: 0x243F0, size: 0x8, addend: 0x0, symName: __ZNSt3__16vectorINS0_IiNS_9allocatorIiEEEENS1_IS3_EEE9__end_capB8ne180100Ev, symObjAddr: 0xA454, symBinAddr: 0x10000AE74, symSize: 0x28 }
  - { offset: 0x24416, size: 0x8, addend: 0x0, symName: __ZNSt3__16vectorINS0_IiNS_9allocatorIiEEEENS1_IS3_EEE22__construct_one_at_endB8ne180100IJRKS3_EEEvDpOT_, symObjAddr: 0xA47C, symBinAddr: 0x10000AE9C, symSize: 0x90 }
  - { offset: 0x24465, size: 0x8, addend: 0x0, symName: __ZNSt3__16vectorINS0_IiNS_9allocatorIiEEEENS1_IS3_EEE21__push_back_slow_pathIRKS3_EEPS3_OT_, symObjAddr: 0xA50C, symBinAddr: 0x10000AF2C, symSize: 0xE8 }
  - { offset: 0x244C3, size: 0x8, addend: 0x0, symName: __ZNSt3__117__compressed_pairIPNS_6vectorIiNS_9allocatorIiEEEENS2_IS4_EEE5firstB8ne180100Ev, symObjAddr: 0xA5F4, symBinAddr: 0x10000B014, symSize: 0x24 }
  - { offset: 0x244E9, size: 0x8, addend: 0x0, symName: __ZNSt3__122__compressed_pair_elemIPNS_6vectorIiNS_9allocatorIiEEEELi0ELb0EE5__getB8ne180100Ev, symObjAddr: 0xA618, symBinAddr: 0x10000B038, symSize: 0x14 }
  - { offset: 0x2452A, size: 0x8, addend: 0x0, symName: __ZNSt3__16vectorINS0_IiNS_9allocatorIiEEEENS1_IS3_EEE21_ConstructTransactionC1B8ne180100ERS5_m, symObjAddr: 0xA62C, symBinAddr: 0x10000B04C, symSize: 0x3C }
  - { offset: 0x24572, size: 0x8, addend: 0x0, symName: __ZNSt3__116allocator_traitsINS_9allocatorINS_6vectorIiNS1_IiEEEEEEE9constructB8ne180100IS4_JRKS4_EvEEvRS5_PT_DpOT0_, symObjAddr: 0xA668, symBinAddr: 0x10000B088, symSize: 0x34 }
  - { offset: 0x245C9, size: 0x8, addend: 0x0, symName: __ZNSt3__16vectorINS0_IiNS_9allocatorIiEEEENS1_IS3_EEE21_ConstructTransactionD1B8ne180100Ev, symObjAddr: 0xA69C, symBinAddr: 0x10000B0BC, symSize: 0x2C }
  - { offset: 0x245F3, size: 0x8, addend: 0x0, symName: __ZNSt3__16vectorINS0_IiNS_9allocatorIiEEEENS1_IS3_EEE21_ConstructTransactionC2B8ne180100ERS5_m, symObjAddr: 0xA6C8, symBinAddr: 0x10000B0E8, symSize: 0x4C }
  - { offset: 0x2463B, size: 0x8, addend: 0x0, symName: __ZNSt3__19allocatorINS_6vectorIiNS0_IiEEEEE9constructB8ne180100IS3_JRKS3_EEEvPT_DpOT0_, symObjAddr: 0xA714, symBinAddr: 0x10000B134, symSize: 0x30 }
  - { offset: 0x24691, size: 0x8, addend: 0x0, symName: __ZNSt3__16vectorINS0_IiNS_9allocatorIiEEEENS1_IS3_EEE21_ConstructTransactionD2B8ne180100Ev, symObjAddr: 0xA744, symBinAddr: 0x10000B164, symSize: 0x20 }
  - { offset: 0x246BB, size: 0x8, addend: 0x0, symName: __ZNKSt3__16vectorINS0_IiNS_9allocatorIiEEEENS1_IS3_EEE11__recommendB8ne180100Em, symObjAddr: 0xA764, symBinAddr: 0x10000B184, symSize: 0xB4 }
  - { offset: 0x24710, size: 0x8, addend: 0x0, symName: __ZNKSt3__16vectorINS0_IiNS_9allocatorIiEEEENS1_IS3_EEE4sizeB8ne180100Ev, symObjAddr: 0xA818, symBinAddr: 0x10000B238, symSize: 0x28 }
  - { offset: 0x24736, size: 0x8, addend: 0x0, symName: __ZNSt3__114__split_bufferINS_6vectorIiNS_9allocatorIiEEEERNS2_IS4_EEEC1EmmS6_, symObjAddr: 0xA840, symBinAddr: 0x10000B260, symSize: 0x44 }
  - { offset: 0x2478C, size: 0x8, addend: 0x0, symName: __ZNSt3__114__split_bufferINS_6vectorIiNS_9allocatorIiEEEERNS2_IS4_EEED1Ev, symObjAddr: 0xA994, symBinAddr: 0x10000B3B4, symSize: 0x2C }
  - { offset: 0x247B8, size: 0x8, addend: 0x0, symName: __ZNKSt3__16vectorINS0_IiNS_9allocatorIiEEEENS1_IS3_EEE8max_sizeEv, symObjAddr: 0xA9C0, symBinAddr: 0x10000B3E0, symSize: 0x60 }
  - { offset: 0x247E0, size: 0x8, addend: 0x0, symName: __ZNKSt3__16vectorINS0_IiNS_9allocatorIiEEEENS1_IS3_EEE20__throw_length_errorB8ne180100Ev, symObjAddr: 0xAA20, symBinAddr: 0x10000B440, symSize: 0x1C }
  - { offset: 0x24811, size: 0x8, addend: 0x0, symName: __ZNSt3__116allocator_traitsINS_9allocatorINS_6vectorIiNS1_IiEEEEEEE8max_sizeB8ne180100IS5_vEEmRKS5_, symObjAddr: 0xAA3C, symBinAddr: 0x10000B45C, symSize: 0x24 }
  - { offset: 0x2483F, size: 0x8, addend: 0x0, symName: __ZNKSt3__16vectorINS0_IiNS_9allocatorIiEEEENS1_IS3_EEE7__allocB8ne180100Ev, symObjAddr: 0xAA60, symBinAddr: 0x10000B480, symSize: 0x28 }
  - { offset: 0x24865, size: 0x8, addend: 0x0, symName: __ZNKSt3__19allocatorINS_6vectorIiNS0_IiEEEEE8max_sizeB8ne180100Ev, symObjAddr: 0xAA88, symBinAddr: 0x10000B4A8, symSize: 0x18 }
  - { offset: 0x2488B, size: 0x8, addend: 0x0, symName: __ZNKSt3__117__compressed_pairIPNS_6vectorIiNS_9allocatorIiEEEENS2_IS4_EEE6secondB8ne180100Ev, symObjAddr: 0xAAA0, symBinAddr: 0x10000B4C0, symSize: 0x24 }
  - { offset: 0x248B1, size: 0x8, addend: 0x0, symName: __ZNKSt3__122__compressed_pair_elemINS_9allocatorINS_6vectorIiNS1_IiEEEEEELi1ELb1EE5__getB8ne180100Ev, symObjAddr: 0xAAC4, symBinAddr: 0x10000B4E4, symSize: 0x14 }
  - { offset: 0x248D7, size: 0x8, addend: 0x0, symName: __ZNSt3__114__split_bufferINS_6vectorIiNS_9allocatorIiEEEERNS2_IS4_EEEC2EmmS6_, symObjAddr: 0xAAD8, symBinAddr: 0x10000B4F8, symSize: 0xE0 }
  - { offset: 0x2494A, size: 0x8, addend: 0x0, symName: __ZNSt3__117__compressed_pairIPNS_6vectorIiNS_9allocatorIiEEEERNS2_IS4_EEEC1B8ne180100IDnS7_EEOT_OT0_, symObjAddr: 0xABB8, symBinAddr: 0x10000B5D8, symSize: 0x3C }
  - { offset: 0x249A2, size: 0x8, addend: 0x0, symName: __ZNSt3__114__split_bufferINS_6vectorIiNS_9allocatorIiEEEERNS2_IS4_EEE7__allocB8ne180100Ev, symObjAddr: 0xAC34, symBinAddr: 0x10000B654, symSize: 0x28 }
  - { offset: 0x249C8, size: 0x8, addend: 0x0, symName: __ZNSt3__114__split_bufferINS_6vectorIiNS_9allocatorIiEEEERNS2_IS4_EEE9__end_capB8ne180100Ev, symObjAddr: 0xAC5C, symBinAddr: 0x10000B67C, symSize: 0x28 }
  - { offset: 0x249EE, size: 0x8, addend: 0x0, symName: __ZNSt3__117__compressed_pairIPNS_6vectorIiNS_9allocatorIiEEEERNS2_IS4_EEEC2B8ne180100IDnS7_EEOT_OT0_, symObjAddr: 0xAC84, symBinAddr: 0x10000B6A4, symSize: 0x48 }
  - { offset: 0x24A46, size: 0x8, addend: 0x0, symName: __ZNSt3__122__compressed_pair_elemIRNS_9allocatorINS_6vectorIiNS1_IiEEEEEELi1ELb0EEC2B8ne180100IS6_vEEOT_, symObjAddr: 0xACCC, symBinAddr: 0x10000B6EC, symSize: 0x20 }
  - { offset: 0x24A88, size: 0x8, addend: 0x0, symName: __ZNSt3__19allocatorINS_6vectorIiNS0_IiEEEEE8allocateB8ne180100Em, symObjAddr: 0xACEC, symBinAddr: 0x10000B70C, symSize: 0x5C }
  - { offset: 0x24ABC, size: 0x8, addend: 0x0, symName: __ZNSt3__117__compressed_pairIPNS_6vectorIiNS_9allocatorIiEEEERNS2_IS4_EEE6secondB8ne180100Ev, symObjAddr: 0xAD48, symBinAddr: 0x10000B768, symSize: 0x28 }
  - { offset: 0x24AE2, size: 0x8, addend: 0x0, symName: __ZNSt3__122__compressed_pair_elemIRNS_9allocatorINS_6vectorIiNS1_IiEEEEEELi1ELb0EE5__getB8ne180100Ev, symObjAddr: 0xAD70, symBinAddr: 0x10000B790, symSize: 0x18 }
  - { offset: 0x24B08, size: 0x8, addend: 0x0, symName: __ZNSt3__117__compressed_pairIPNS_6vectorIiNS_9allocatorIiEEEERNS2_IS4_EEE5firstB8ne180100Ev, symObjAddr: 0xAD88, symBinAddr: 0x10000B7A8, symSize: 0x24 }
  - { offset: 0x24B2E, size: 0x8, addend: 0x0, symName: __ZNSt3__116reverse_iteratorIPNS_6vectorIiNS_9allocatorIiEEEEEC1B8ne180100ES5_, symObjAddr: 0xAED8, symBinAddr: 0x10000B8F8, symSize: 0x34 }
  - { offset: 0x24B66, size: 0x8, addend: 0x0, symName: __ZNKSt3__116reverse_iteratorIPNS_6vectorIiNS_9allocatorIiEEEEE4baseB8ne180100Ev, symObjAddr: 0xAF0C, symBinAddr: 0x10000B92C, symSize: 0x18 }
  - { offset: 0x24B8C, size: 0x8, addend: 0x0, symName: __ZNKSt3__16vectorINS0_IiNS_9allocatorIiEEEENS1_IS3_EEE14__annotate_newB8ne180100Em, symObjAddr: 0xAF60, symBinAddr: 0x10000B980, symSize: 0x14 }
  - { offset: 0x24BC1, size: 0x8, addend: 0x0, symName: __ZNSt3__129_AllocatorDestroyRangeReverseINS_9allocatorINS_6vectorIiNS1_IiEEEEEENS_16reverse_iteratorIPS4_EEEC1B8ne180100ERS5_RS8_SB_, symObjAddr: 0xAFC0, symBinAddr: 0x10000B9E0, symSize: 0x44 }
  - { offset: 0x24C18, size: 0x8, addend: 0x0, symName: __ZNSt3__116allocator_traitsINS_9allocatorINS_6vectorIiNS1_IiEEEEEEE9constructB8ne180100IS4_JS4_EvEEvRS5_PT_DpOT0_, symObjAddr: 0xB04C, symBinAddr: 0x10000BA6C, symSize: 0x34 }
  - { offset: 0x24C6F, size: 0x8, addend: 0x0, symName: __ZNKSt3__116reverse_iteratorIPNS_6vectorIiNS_9allocatorIiEEEEEdeB8ne180100Ev, symObjAddr: 0xB0A4, symBinAddr: 0x10000BAC4, symSize: 0x28 }
  - { offset: 0x24CA3, size: 0x8, addend: 0x0, symName: __ZNSt3__116reverse_iteratorIPNS_6vectorIiNS_9allocatorIiEEEEEppB8ne180100Ev, symObjAddr: 0xB0CC, symBinAddr: 0x10000BAEC, symSize: 0x20 }
  - { offset: 0x24CC9, size: 0x8, addend: 0x0, symName: __ZNSt3__128__exception_guard_exceptionsINS_29_AllocatorDestroyRangeReverseINS_9allocatorINS_6vectorIiNS2_IiEEEEEENS_16reverse_iteratorIPS5_EEEEE10__completeB8ne180100Ev, symObjAddr: 0xB0EC, symBinAddr: 0x10000BB0C, symSize: 0x1C }
  - { offset: 0x24CEF, size: 0x8, addend: 0x0, symName: __ZNSt3__128__exception_guard_exceptionsINS_29_AllocatorDestroyRangeReverseINS_9allocatorINS_6vectorIiNS2_IiEEEEEENS_16reverse_iteratorIPS5_EEEEED1B8ne180100Ev, symObjAddr: 0xB108, symBinAddr: 0x10000BB28, symSize: 0x2C }
  - { offset: 0x24D19, size: 0x8, addend: 0x0, symName: __ZNSt3__128__exception_guard_exceptionsINS_29_AllocatorDestroyRangeReverseINS_9allocatorINS_6vectorIiNS2_IiEEEEEENS_16reverse_iteratorIPS5_EEEEEC1B8ne180100ESA_, symObjAddr: 0xB134, symBinAddr: 0x10000BB54, symSize: 0x34 }
  - { offset: 0x24D52, size: 0x8, addend: 0x0, symName: __ZNSt3__128__exception_guard_exceptionsINS_29_AllocatorDestroyRangeReverseINS_9allocatorINS_6vectorIiNS2_IiEEEEEENS_16reverse_iteratorIPS5_EEEEEC2B8ne180100ESA_, symObjAddr: 0xB168, symBinAddr: 0x10000BB88, symSize: 0x30 }
  - { offset: 0x24D8B, size: 0x8, addend: 0x0, symName: __ZNSt3__129_AllocatorDestroyRangeReverseINS_9allocatorINS_6vectorIiNS1_IiEEEEEENS_16reverse_iteratorIPS4_EEEC2B8ne180100ERS5_RS8_SB_, symObjAddr: 0xB198, symBinAddr: 0x10000BBB8, symSize: 0x38 }
  - { offset: 0x24DE2, size: 0x8, addend: 0x0, symName: __ZNSt3__19allocatorINS_6vectorIiNS0_IiEEEEE9constructB8ne180100IS3_JS3_EEEvPT_DpOT0_, symObjAddr: 0xB1D0, symBinAddr: 0x10000BBF0, symSize: 0x30 }
  - { offset: 0x24E38, size: 0x8, addend: 0x0, symName: __ZNSt3__16vectorIiNS_9allocatorIiEEEC1B8ne180100EOS3_, symObjAddr: 0xB200, symBinAddr: 0x10000BC20, symSize: 0x34 }
  - { offset: 0x24E73, size: 0x8, addend: 0x0, symName: __ZNSt3__16vectorIiNS_9allocatorIiEEEC2B8ne180100EOS3_, symObjAddr: 0xB234, symBinAddr: 0x10000BC54, symSize: 0xC4 }
  - { offset: 0x24EB4, size: 0x8, addend: 0x0, symName: __ZNSt3__119__to_address_helperINS_16reverse_iteratorIPNS_6vectorIiNS_9allocatorIiEEEEEEvE6__callB8ne180100ERKS7_, symObjAddr: 0xB2F8, symBinAddr: 0x10000BD18, symSize: 0x38 }
  - { offset: 0x24ED7, size: 0x8, addend: 0x0, symName: __ZNKSt3__116reverse_iteratorIPNS_6vectorIiNS_9allocatorIiEEEEEptB8ne180100Ev, symObjAddr: 0xB330, symBinAddr: 0x10000BD50, symSize: 0x24 }
  - { offset: 0x24EFD, size: 0x8, addend: 0x0, symName: __ZNSt3__128__exception_guard_exceptionsINS_29_AllocatorDestroyRangeReverseINS_9allocatorINS_6vectorIiNS2_IiEEEEEENS_16reverse_iteratorIPS5_EEEEED2B8ne180100Ev, symObjAddr: 0xB354, symBinAddr: 0x10000BD74, symSize: 0x50 }
  - { offset: 0x24F27, size: 0x8, addend: 0x0, symName: __ZNKSt3__129_AllocatorDestroyRangeReverseINS_9allocatorINS_6vectorIiNS1_IiEEEEEENS_16reverse_iteratorIPS4_EEEclB8ne180100Ev, symObjAddr: 0xB3A4, symBinAddr: 0x10000BDC4, symSize: 0xB4 }
  - { offset: 0x24F4E, size: 0x8, addend: 0x0, symName: __ZNSt3__116reverse_iteratorINS0_IPNS_6vectorIiNS_9allocatorIiEEEEEEEC1B8ne180100ES6_, symObjAddr: 0xB4C8, symBinAddr: 0x10000BEE8, symSize: 0x3C }
  - { offset: 0x24F86, size: 0x8, addend: 0x0, symName: __ZNSt3__116reverse_iteratorINS0_IPNS_6vectorIiNS_9allocatorIiEEEEEEEppB8ne180100Ev, symObjAddr: 0xB588, symBinAddr: 0x10000BFA8, symSize: 0x30 }
  - { offset: 0x24FAC, size: 0x8, addend: 0x0, symName: __ZNKSt3__116reverse_iteratorINS0_IPNS_6vectorIiNS_9allocatorIiEEEEEEE4baseB8ne180100Ev, symObjAddr: 0xB5B8, symBinAddr: 0x10000BFD8, symSize: 0x24 }
  - { offset: 0x24FD8, size: 0x8, addend: 0x0, symName: __ZNSt3__119__to_address_helperINS_16reverse_iteratorINS1_IPNS_6vectorIiNS_9allocatorIiEEEEEEEEvE6__callB8ne180100ERKS8_, symObjAddr: 0xB5DC, symBinAddr: 0x10000BFFC, symSize: 0x38 }
  - { offset: 0x24FFB, size: 0x8, addend: 0x0, symName: __ZNKSt3__116reverse_iteratorINS0_IPNS_6vectorIiNS_9allocatorIiEEEEEEEptB8ne180100Ev, symObjAddr: 0xB614, symBinAddr: 0x10000C034, symSize: 0x24 }
  - { offset: 0x25021, size: 0x8, addend: 0x0, symName: __ZNKSt3__116reverse_iteratorINS0_IPNS_6vectorIiNS_9allocatorIiEEEEEEEdeB8ne180100Ev, symObjAddr: 0xB638, symBinAddr: 0x10000C058, symSize: 0x34 }
  - { offset: 0x25055, size: 0x8, addend: 0x0, symName: __ZNSt3__116reverse_iteratorIPNS_6vectorIiNS_9allocatorIiEEEEEmmB8ne180100Ev, symObjAddr: 0xB66C, symBinAddr: 0x10000C08C, symSize: 0x20 }
  - { offset: 0x2507B, size: 0x8, addend: 0x0, symName: __ZNSt3__116reverse_iteratorINS0_IPNS_6vectorIiNS_9allocatorIiEEEEEEEC2B8ne180100ES6_, symObjAddr: 0xB68C, symBinAddr: 0x10000C0AC, symSize: 0x2C }
  - { offset: 0x250B3, size: 0x8, addend: 0x0, symName: __ZNSt3__116reverse_iteratorIPNS_6vectorIiNS_9allocatorIiEEEEEC2B8ne180100ES5_, symObjAddr: 0xB6B8, symBinAddr: 0x10000C0D8, symSize: 0x28 }
  - { offset: 0x250EB, size: 0x8, addend: 0x0, symName: __ZNSt3__114__split_bufferINS_6vectorIiNS_9allocatorIiEEEERNS2_IS4_EEED2Ev, symObjAddr: 0xB6E0, symBinAddr: 0x10000C100, symSize: 0x8C }
  - { offset: 0x25117, size: 0x8, addend: 0x0, symName: __ZNSt3__114__split_bufferINS_6vectorIiNS_9allocatorIiEEEERNS2_IS4_EEE5clearB8ne180100Ev, symObjAddr: 0xB76C, symBinAddr: 0x10000C18C, symSize: 0x28 }
  - { offset: 0x2513D, size: 0x8, addend: 0x0, symName: __ZNKSt3__114__split_bufferINS_6vectorIiNS_9allocatorIiEEEERNS2_IS4_EEE8capacityB8ne180100Ev, symObjAddr: 0xB794, symBinAddr: 0x10000C1B4, symSize: 0x40 }
  - { offset: 0x25163, size: 0x8, addend: 0x0, symName: __ZNSt3__114__split_bufferINS_6vectorIiNS_9allocatorIiEEEERNS2_IS4_EEE17__destruct_at_endB8ne180100EPS4_, symObjAddr: 0xB7D4, symBinAddr: 0x10000C1F4, symSize: 0x2C }
  - { offset: 0x25197, size: 0x8, addend: 0x0, symName: __ZNSt3__114__split_bufferINS_6vectorIiNS_9allocatorIiEEEERNS2_IS4_EEE17__destruct_at_endB8ne180100EPS4_NS_17integral_constantIbLb0EEE, symObjAddr: 0xB800, symBinAddr: 0x10000C220, symSize: 0x80 }
  - { offset: 0x251D7, size: 0x8, addend: 0x0, symName: __ZNKSt3__114__split_bufferINS_6vectorIiNS_9allocatorIiEEEERNS2_IS4_EEE9__end_capB8ne180100Ev, symObjAddr: 0xB880, symBinAddr: 0x10000C2A0, symSize: 0x28 }
  - { offset: 0x251FD, size: 0x8, addend: 0x0, symName: __ZNKSt3__117__compressed_pairIPNS_6vectorIiNS_9allocatorIiEEEERNS2_IS4_EEE5firstB8ne180100Ev, symObjAddr: 0xB8A8, symBinAddr: 0x10000C2C8, symSize: 0x24 }
  - { offset: 0x25223, size: 0x8, addend: 0x0, symName: __ZNSt3__112basic_stringIcNS_11char_traitsIcEENS_9allocatorIcEEEC2B8ne180100ILi0EEEPKc, symObjAddr: 0xB8CC, symBinAddr: 0x10000C2EC, symSize: 0x58 }
  - { offset: 0x25262, size: 0x8, addend: 0x0, symName: __ZNSt3__117__compressed_pairINS_12basic_stringIcNS_11char_traitsIcEENS_9allocatorIcEEE5__repES5_EC1B8ne180100INS_18__default_init_tagESA_EEOT_OT0_, symObjAddr: 0xB924, symBinAddr: 0x10000C344, symSize: 0x3C }
  - { offset: 0x252BA, size: 0x8, addend: 0x0, symName: __ZNSt3__111char_traitsIcE6lengthB8ne180100EPKc, symObjAddr: 0xB960, symBinAddr: 0x10000C380, symSize: 0x34 }
  - { offset: 0x252DD, size: 0x8, addend: 0x0, symName: __ZNSt3__117__compressed_pairINS_12basic_stringIcNS_11char_traitsIcEENS_9allocatorIcEEE5__repES5_EC2B8ne180100INS_18__default_init_tagESA_EEOT_OT0_, symObjAddr: 0xB994, symBinAddr: 0x10000C3B4, symSize: 0x3C }
  - { offset: 0x25335, size: 0x8, addend: 0x0, symName: __ZNSt3__122__compressed_pair_elemINS_12basic_stringIcNS_11char_traitsIcEENS_9allocatorIcEEE5__repELi0ELb0EEC2B8ne180100ENS_18__default_init_tagE, symObjAddr: 0xB9D0, symBinAddr: 0x10000C3F0, symSize: 0x14 }
  - { offset: 0x25369, size: 0x8, addend: 0x0, symName: __ZNSt3__13setINS_4pairINS_6vectorIiNS_9allocatorIiEEEES5_EENS_4lessIS6_EENS3_IS6_EEEC2B8ne180100Ev, symObjAddr: 0xBA08, symBinAddr: 0x10000C428, symSize: 0x30 }
  - { offset: 0x25393, size: 0x8, addend: 0x0, symName: __ZNSt3__16__treeINS_4pairINS_6vectorIiNS_9allocatorIiEEEES5_EENS_4lessIS6_EENS3_IS6_EEEC1ERKS8_, symObjAddr: 0xBA38, symBinAddr: 0x10000C458, symSize: 0x34 }
  - { offset: 0x253CE, size: 0x8, addend: 0x0, symName: __ZNSt3__16__treeINS_4pairINS_6vectorIiNS_9allocatorIiEEEES5_EENS_4lessIS6_EENS3_IS6_EEEC2ERKS8_, symObjAddr: 0xBA6C, symBinAddr: 0x10000C48C, symSize: 0x7C }
  - { offset: 0x25409, size: 0x8, addend: 0x0, symName: __ZNSt3__117__compressed_pairINS_15__tree_end_nodeIPNS_16__tree_node_baseIPvEEEENS_9allocatorINS_11__tree_nodeINS_4pairINS_6vectorIiNS7_IiEEEESC_EES3_EEEEEC1B8ne180100ILb1EvEEv, symObjAddr: 0xBAE8, symBinAddr: 0x10000C508, symSize: 0x2C }
  - { offset: 0x25444, size: 0x8, addend: 0x0, symName: __ZNSt3__117__compressed_pairImNS_4lessINS_4pairINS_6vectorIiNS_9allocatorIiEEEES6_EEEEEC1B8ne180100IiRKS8_EEOT_OT0_, symObjAddr: 0xBB14, symBinAddr: 0x10000C534, symSize: 0x3C }
  - { offset: 0x2549C, size: 0x8, addend: 0x0, symName: __ZNSt3__16__treeINS_4pairINS_6vectorIiNS_9allocatorIiEEEES5_EENS_4lessIS6_EENS3_IS6_EEE10__end_nodeB8ne180100Ev, symObjAddr: 0xBB50, symBinAddr: 0x10000C570, symSize: 0x2C }
  - { offset: 0x254C2, size: 0x8, addend: 0x0, symName: __ZNSt3__16__treeINS_4pairINS_6vectorIiNS_9allocatorIiEEEES5_EENS_4lessIS6_EENS3_IS6_EEE12__begin_nodeB8ne180100Ev, symObjAddr: 0xBB7C, symBinAddr: 0x10000C59C, symSize: 0x14 }
  - { offset: 0x254E8, size: 0x8, addend: 0x0, symName: __ZNSt3__117__compressed_pairINS_15__tree_end_nodeIPNS_16__tree_node_baseIPvEEEENS_9allocatorINS_11__tree_nodeINS_4pairINS_6vectorIiNS7_IiEEEESC_EES3_EEEEEC2B8ne180100ILb1EvEEv, symObjAddr: 0xBB90, symBinAddr: 0x10000C5B0, symSize: 0x34 }
  - { offset: 0x2551D, size: 0x8, addend: 0x0, symName: __ZNSt3__122__compressed_pair_elemINS_15__tree_end_nodeIPNS_16__tree_node_baseIPvEEEELi0ELb0EEC2B8ne180100ENS_16__value_init_tagE, symObjAddr: 0xBBC4, symBinAddr: 0x10000C5E4, symSize: 0x2C }
  - { offset: 0x25551, size: 0x8, addend: 0x0, symName: __ZNSt3__122__compressed_pair_elemINS_9allocatorINS_11__tree_nodeINS_4pairINS_6vectorIiNS1_IiEEEES6_EEPvEEEELi1ELb1EEC2B8ne180100ENS_16__value_init_tagE, symObjAddr: 0xBBF0, symBinAddr: 0x10000C610, symSize: 0x2C }
  - { offset: 0x25585, size: 0x8, addend: 0x0, symName: __ZNSt3__115__tree_end_nodeIPNS_16__tree_node_baseIPvEEEC1B8ne180100Ev, symObjAddr: 0xBC1C, symBinAddr: 0x10000C63C, symSize: 0x2C }
  - { offset: 0x255AF, size: 0x8, addend: 0x0, symName: __ZNSt3__115__tree_end_nodeIPNS_16__tree_node_baseIPvEEEC2B8ne180100Ev, symObjAddr: 0xBC48, symBinAddr: 0x10000C668, symSize: 0x18 }
  - { offset: 0x255D9, size: 0x8, addend: 0x0, symName: __ZNSt3__19allocatorINS_11__tree_nodeINS_4pairINS_6vectorIiNS0_IiEEEES5_EEPvEEEC2B8ne180100Ev, symObjAddr: 0xBC60, symBinAddr: 0x10000C680, symSize: 0x2C }
  - { offset: 0x25603, size: 0x8, addend: 0x0, symName: __ZNSt3__116__non_trivial_ifILb1ENS_9allocatorINS_11__tree_nodeINS_4pairINS_6vectorIiNS1_IiEEEES6_EEPvEEEEEC2B8ne180100Ev, symObjAddr: 0xBC8C, symBinAddr: 0x10000C6AC, symSize: 0x14 }
  - { offset: 0x2562D, size: 0x8, addend: 0x0, symName: __ZNSt3__117__compressed_pairImNS_4lessINS_4pairINS_6vectorIiNS_9allocatorIiEEEES6_EEEEEC2B8ne180100IiRKS8_EEOT_OT0_, symObjAddr: 0xBCA0, symBinAddr: 0x10000C6C0, symSize: 0x44 }
  - { offset: 0x25685, size: 0x8, addend: 0x0, symName: __ZNSt3__122__compressed_pair_elemImLi0ELb0EEC2B8ne180100IivEEOT_, symObjAddr: 0xBCE4, symBinAddr: 0x10000C704, symSize: 0x24 }
  - { offset: 0x256C7, size: 0x8, addend: 0x0, symName: __ZNSt3__122__compressed_pair_elemINS_4lessINS_4pairINS_6vectorIiNS_9allocatorIiEEEES6_EEEELi1ELb1EEC2B8ne180100IRKS8_vEEOT_, symObjAddr: 0xBD08, symBinAddr: 0x10000C728, symSize: 0x18 }
  - { offset: 0x25709, size: 0x8, addend: 0x0, symName: __ZNSt3__114pointer_traitsIPNS_15__tree_end_nodeIPNS_16__tree_node_baseIPvEEEEE10pointer_toB8ne180100ERS6_, symObjAddr: 0xBD20, symBinAddr: 0x10000C740, symSize: 0x14 }
  - { offset: 0x2572C, size: 0x8, addend: 0x0, symName: __ZNSt3__117__compressed_pairINS_15__tree_end_nodeIPNS_16__tree_node_baseIPvEEEENS_9allocatorINS_11__tree_nodeINS_4pairINS_6vectorIiNS7_IiEEEESC_EES3_EEEEE5firstB8ne180100Ev, symObjAddr: 0xBD34, symBinAddr: 0x10000C754, symSize: 0x24 }
  - { offset: 0x25752, size: 0x8, addend: 0x0, symName: __ZNSt3__122__compressed_pair_elemINS_15__tree_end_nodeIPNS_16__tree_node_baseIPvEEEELi0ELb0EE5__getB8ne180100Ev, symObjAddr: 0xBD58, symBinAddr: 0x10000C778, symSize: 0x14 }
  - { offset: 0x25778, size: 0x8, addend: 0x0, symName: __ZNSt3__13setINS_4pairINS_6vectorIiNS_9allocatorIiEEEES5_EENS_4lessIS6_EENS3_IS6_EEED2B8ne180100Ev, symObjAddr: 0xBD6C, symBinAddr: 0x10000C78C, symSize: 0x2C }
  - { offset: 0x257A2, size: 0x8, addend: 0x0, symName: __ZNSt3__16__treeINS_4pairINS_6vectorIiNS_9allocatorIiEEEES5_EENS_4lessIS6_EENS3_IS6_EEED1Ev, symObjAddr: 0xBD98, symBinAddr: 0x10000C7B8, symSize: 0x2C }
  - { offset: 0x257CE, size: 0x8, addend: 0x0, symName: __ZNSt3__16__treeINS_4pairINS_6vectorIiNS_9allocatorIiEEEES5_EENS_4lessIS6_EENS3_IS6_EEED2Ev, symObjAddr: 0xBDC4, symBinAddr: 0x10000C7E4, symSize: 0x38 }
  - { offset: 0x257FA, size: 0x8, addend: 0x0, symName: __ZNSt3__16__treeINS_4pairINS_6vectorIiNS_9allocatorIiEEEES5_EENS_4lessIS6_EENS3_IS6_EEE7destroyEPNS_11__tree_nodeIS6_PvEE, symObjAddr: 0xBDFC, symBinAddr: 0x10000C81C, symSize: 0xAC }
  - { offset: 0x25846, size: 0x8, addend: 0x0, symName: __ZNKSt3__16__treeINS_4pairINS_6vectorIiNS_9allocatorIiEEEES5_EENS_4lessIS6_EENS3_IS6_EEE6__rootB8ne180100Ev, symObjAddr: 0xBEA8, symBinAddr: 0x10000C8C8, symSize: 0x28 }
  - { offset: 0x2586C, size: 0x8, addend: 0x0, symName: __ZNSt3__16__treeINS_4pairINS_6vectorIiNS_9allocatorIiEEEES5_EENS_4lessIS6_EENS3_IS6_EEE12__node_allocB8ne180100Ev, symObjAddr: 0xBED0, symBinAddr: 0x10000C8F0, symSize: 0x28 }
  - { offset: 0x25892, size: 0x8, addend: 0x0, symName: __ZNSt3__116allocator_traitsINS_9allocatorINS_11__tree_nodeINS_4pairINS_6vectorIiNS1_IiEEEES6_EEPvEEEEE7destroyB8ne180100IS7_vvEEvRSA_PT_, symObjAddr: 0xBEF8, symBinAddr: 0x10000C918, symSize: 0x28 }
  - { offset: 0x258CC, size: 0x8, addend: 0x0, symName: __ZNSt3__122__tree_key_value_typesINS_4pairINS_6vectorIiNS_9allocatorIiEEEES5_EEE9__get_ptrB8ne180100ERS6_, symObjAddr: 0xBF20, symBinAddr: 0x10000C940, symSize: 0x14 }
  - { offset: 0x258F0, size: 0x8, addend: 0x0, symName: __ZNSt3__116allocator_traitsINS_9allocatorINS_11__tree_nodeINS_4pairINS_6vectorIiNS1_IiEEEES6_EEPvEEEEE10deallocateB8ne180100ERSA_PS9_m, symObjAddr: 0xBF34, symBinAddr: 0x10000C954, symSize: 0x34 }
  - { offset: 0x25932, size: 0x8, addend: 0x0, symName: __ZNSt3__117__compressed_pairINS_15__tree_end_nodeIPNS_16__tree_node_baseIPvEEEENS_9allocatorINS_11__tree_nodeINS_4pairINS_6vectorIiNS7_IiEEEESC_EES3_EEEEE6secondB8ne180100Ev, symObjAddr: 0xBF68, symBinAddr: 0x10000C988, symSize: 0x24 }
  - { offset: 0x25958, size: 0x8, addend: 0x0, symName: __ZNSt3__122__compressed_pair_elemINS_9allocatorINS_11__tree_nodeINS_4pairINS_6vectorIiNS1_IiEEEES6_EEPvEEEELi1ELb1EE5__getB8ne180100Ev, symObjAddr: 0xBF8C, symBinAddr: 0x10000C9AC, symSize: 0x14 }
  - { offset: 0x2597E, size: 0x8, addend: 0x0, symName: __ZNSt3__19allocatorINS_11__tree_nodeINS_4pairINS_6vectorIiNS0_IiEEEES5_EEPvEEE10deallocateB8ne180100EPS8_m, symObjAddr: 0xBFC4, symBinAddr: 0x10000C9E4, symSize: 0x44 }
  - { offset: 0x259C0, size: 0x8, addend: 0x0, symName: __ZNKSt3__16__treeINS_4pairINS_6vectorIiNS_9allocatorIiEEEES5_EENS_4lessIS6_EENS3_IS6_EEE10__end_nodeB8ne180100Ev, symObjAddr: 0xC008, symBinAddr: 0x10000CA28, symSize: 0x2C }
  - { offset: 0x259E6, size: 0x8, addend: 0x0, symName: __ZNKSt3__117__compressed_pairINS_15__tree_end_nodeIPNS_16__tree_node_baseIPvEEEENS_9allocatorINS_11__tree_nodeINS_4pairINS_6vectorIiNS7_IiEEEESC_EES3_EEEEE5firstB8ne180100Ev, symObjAddr: 0xC034, symBinAddr: 0x10000CA54, symSize: 0x24 }
  - { offset: 0x25A0C, size: 0x8, addend: 0x0, symName: __ZNKSt3__122__compressed_pair_elemINS_15__tree_end_nodeIPNS_16__tree_node_baseIPvEEEELi0ELb0EE5__getB8ne180100Ev, symObjAddr: 0xC058, symBinAddr: 0x10000CA78, symSize: 0x14 }
  - { offset: 0x25A32, size: 0x8, addend: 0x0, symName: __ZNSt3__16vectorINS0_IiNS_9allocatorIiEEEENS1_IS3_EEE11__make_iterB8ne180100EPS3_, symObjAddr: 0xC06C, symBinAddr: 0x10000CA8C, symSize: 0x30 }
  - { offset: 0x25A67, size: 0x8, addend: 0x0, symName: __ZNSt3__111__wrap_iterIPNS_6vectorIiNS_9allocatorIiEEEEEC1B8ne180100ES5_, symObjAddr: 0xC09C, symBinAddr: 0x10000CABC, symSize: 0x34 }
  - { offset: 0x25A9F, size: 0x8, addend: 0x0, symName: __ZNSt3__111__wrap_iterIPNS_6vectorIiNS_9allocatorIiEEEEEC2B8ne180100ES5_, symObjAddr: 0xC0D0, symBinAddr: 0x10000CAF0, symSize: 0x20 }
  - { offset: 0x25AD7, size: 0x8, addend: 0x0, symName: __ZNSt3__16__treeINS_4pairINS_6vectorIiNS_9allocatorIiEEEES5_EENS_4lessIS6_EENS3_IS6_EEE15__insert_uniqueB8ne180100EOS6_, symObjAddr: 0xC0F0, symBinAddr: 0x10000CB10, symSize: 0x50 }
  - { offset: 0x25B0C, size: 0x8, addend: 0x0, symName: __ZNSt3__14pairINS_21__tree_const_iteratorINS0_INS_6vectorIiNS_9allocatorIiEEEES5_EEPNS_11__tree_nodeIS6_PvEElEEbEC1B8ne180100INS_15__tree_iteratorIS6_SA_lEEbLi0EEEONS0_IT_T0_EE, symObjAddr: 0xC140, symBinAddr: 0x10000CB60, symSize: 0x34 }
  - { offset: 0x25B5C, size: 0x8, addend: 0x0, symName: __ZNSt3__16__treeINS_4pairINS_6vectorIiNS_9allocatorIiEEEES5_EENS_4lessIS6_EENS3_IS6_EEE25__emplace_unique_key_argsIS6_JS6_EEENS1_INS_15__tree_iteratorIS6_PNS_11__tree_nodeIS6_PvEElEEbEERKT_DpOT0_, symObjAddr: 0xC174, symBinAddr: 0x10000CB94, symSize: 0xF0 }
  - { offset: 0x25C08, size: 0x8, addend: 0x0, symName: __ZNSt3__122__tree_key_value_typesINS_4pairINS_6vectorIiNS_9allocatorIiEEEES5_EEE9__get_keyB8ne180100ERKS6_, symObjAddr: 0xC264, symBinAddr: 0x10000CC84, symSize: 0x14 }
  - { offset: 0x25C2C, size: 0x8, addend: 0x0, symName: __ZNSt3__16__treeINS_4pairINS_6vectorIiNS_9allocatorIiEEEES5_EENS_4lessIS6_EENS3_IS6_EEE12__find_equalIS6_EERPNS_16__tree_node_baseIPvEERPNS_15__tree_end_nodeISF_EERKT_, symObjAddr: 0xC278, symBinAddr: 0x10000CC98, symSize: 0x184 }
  - { offset: 0x25C99, size: 0x8, addend: 0x0, symName: __ZNSt3__16__treeINS_4pairINS_6vectorIiNS_9allocatorIiEEEES5_EENS_4lessIS6_EENS3_IS6_EEE16__construct_nodeIJS6_EEENS_10unique_ptrINS_11__tree_nodeIS6_PvEENS_22__tree_node_destructorINS3_ISF_EEEEEEDpOT_, symObjAddr: 0xC3FC, symBinAddr: 0x10000CE1C, symSize: 0x108 }
  - { offset: 0x25CFA, size: 0x8, addend: 0x0, symName: __ZNSt3__16__treeINS_4pairINS_6vectorIiNS_9allocatorIiEEEES5_EENS_4lessIS6_EENS3_IS6_EEE16__insert_node_atEPNS_15__tree_end_nodeIPNS_16__tree_node_baseIPvEEEERSF_SF_, symObjAddr: 0xC504, symBinAddr: 0x10000CF24, symSize: 0xCC }
  - { offset: 0x25D4F, size: 0x8, addend: 0x0, symName: __ZNKSt3__110unique_ptrINS_11__tree_nodeINS_4pairINS_6vectorIiNS_9allocatorIiEEEES6_EEPvEENS_22__tree_node_destructorINS4_IS9_EEEEE3getB8ne180100Ev, symObjAddr: 0xC5D0, symBinAddr: 0x10000CFF0, symSize: 0x28 }
  - { offset: 0x25D75, size: 0x8, addend: 0x0, symName: __ZNSt3__110unique_ptrINS_11__tree_nodeINS_4pairINS_6vectorIiNS_9allocatorIiEEEES6_EEPvEENS_22__tree_node_destructorINS4_IS9_EEEEE7releaseB8ne180100Ev, symObjAddr: 0xC5F8, symBinAddr: 0x10000D018, symSize: 0x44 }
  - { offset: 0x25DAA, size: 0x8, addend: 0x0, symName: __ZNSt3__110unique_ptrINS_11__tree_nodeINS_4pairINS_6vectorIiNS_9allocatorIiEEEES6_EEPvEENS_22__tree_node_destructorINS4_IS9_EEEEED1B8ne180100Ev, symObjAddr: 0xC63C, symBinAddr: 0x10000D05C, symSize: 0x2C }
  - { offset: 0x25DD4, size: 0x8, addend: 0x0, symName: __ZNSt3__115__tree_iteratorINS_4pairINS_6vectorIiNS_9allocatorIiEEEES5_EEPNS_11__tree_nodeIS6_PvEElEC1B8ne180100ESA_, symObjAddr: 0xC668, symBinAddr: 0x10000D088, symSize: 0x34 }
  - { offset: 0x25E13, size: 0x8, addend: 0x0, symName: __ZNSt3__14pairINS_15__tree_iteratorINS0_INS_6vectorIiNS_9allocatorIiEEEES5_EEPNS_11__tree_nodeIS6_PvEElEEbEC1B8ne180100ISB_RbLi0EEEOT_OT0_, symObjAddr: 0xC69C, symBinAddr: 0x10000D0BC, symSize: 0x3C }
  - { offset: 0x25E71, size: 0x8, addend: 0x0, symName: __ZNKSt3__16__treeINS_4pairINS_6vectorIiNS_9allocatorIiEEEES5_EENS_4lessIS6_EENS3_IS6_EEE10__root_ptrB8ne180100Ev, symObjAddr: 0xC6D8, symBinAddr: 0x10000D0F8, symSize: 0x24 }
  - { offset: 0x25E97, size: 0x8, addend: 0x0, symName: __ZNSt3__16__treeINS_4pairINS_6vectorIiNS_9allocatorIiEEEES5_EENS_4lessIS6_EENS3_IS6_EEE10value_compB8ne180100Ev, symObjAddr: 0xC6FC, symBinAddr: 0x10000D11C, symSize: 0x28 }
  - { offset: 0x25EBD, size: 0x8, addend: 0x0, symName: __ZNKSt3__14lessINS_4pairINS_6vectorIiNS_9allocatorIiEEEES5_EEEclB8ne180100ERKS6_S9_, symObjAddr: 0xC724, symBinAddr: 0x10000D144, symSize: 0x34 }
  - { offset: 0x25F01, size: 0x8, addend: 0x0, symName: __ZNSt3__117__compressed_pairImNS_4lessINS_4pairINS_6vectorIiNS_9allocatorIiEEEES6_EEEEE6secondB8ne180100Ev, symObjAddr: 0xC758, symBinAddr: 0x10000D178, symSize: 0x24 }
  - { offset: 0x25F27, size: 0x8, addend: 0x0, symName: __ZNSt3__122__compressed_pair_elemINS_4lessINS_4pairINS_6vectorIiNS_9allocatorIiEEEES6_EEEELi1ELb1EE5__getB8ne180100Ev, symObjAddr: 0xC77C, symBinAddr: 0x10000D19C, symSize: 0x14 }
  - { offset: 0x25F4D, size: 0x8, addend: 0x0, symName: __ZNKSt3__16vectorIiNS_9allocatorIiEEE5beginB8ne180100Ev, symObjAddr: 0xC8E0, symBinAddr: 0x10000D300, symSize: 0x30 }
  - { offset: 0x25F75, size: 0x8, addend: 0x0, symName: __ZNKSt3__16vectorIiNS_9allocatorIiEEE3endB8ne180100Ev, symObjAddr: 0xC910, symBinAddr: 0x10000D330, symSize: 0x30 }
  - { offset: 0x25F9D, size: 0x8, addend: 0x0, symName: __ZNKSt3__16__lessIvvEclB8ne180100IiiEEbRKT_RKT0_, symObjAddr: 0xCB3C, symBinAddr: 0x10000D55C, symSize: 0x34 }
  - { offset: 0x25FF1, size: 0x8, addend: 0x0, symName: __ZNKSt3__111__wrap_iterIPKiEdeB8ne180100Ev, symObjAddr: 0xCB70, symBinAddr: 0x10000D590, symSize: 0x18 }
  - { offset: 0x26017, size: 0x8, addend: 0x0, symName: __ZNSt3__111__wrap_iterIPKiEppB8ne180100Ev, symObjAddr: 0xCB88, symBinAddr: 0x10000D5A8, symSize: 0x20 }
  - { offset: 0x2603D, size: 0x8, addend: 0x0, symName: __ZNKSt3__111__wrap_iterIPKiE4baseB8ne180100Ev, symObjAddr: 0xCBA8, symBinAddr: 0x10000D5C8, symSize: 0x18 }
  - { offset: 0x26063, size: 0x8, addend: 0x0, symName: __ZNKSt3__16vectorIiNS_9allocatorIiEEE11__make_iterB8ne180100EPKi, symObjAddr: 0xCBC0, symBinAddr: 0x10000D5E0, symSize: 0x30 }
  - { offset: 0x26098, size: 0x8, addend: 0x0, symName: __ZNSt3__111__wrap_iterIPKiEC1B8ne180100ES2_, symObjAddr: 0xCBF0, symBinAddr: 0x10000D610, symSize: 0x34 }
  - { offset: 0x260D0, size: 0x8, addend: 0x0, symName: __ZNSt3__111__wrap_iterIPKiEC2B8ne180100ES2_, symObjAddr: 0xCC24, symBinAddr: 0x10000D644, symSize: 0x20 }
  - { offset: 0x26108, size: 0x8, addend: 0x0, symName: __ZNSt3__116allocator_traitsINS_9allocatorINS_11__tree_nodeINS_4pairINS_6vectorIiNS1_IiEEEES6_EEPvEEEEE8allocateB8ne180100ERSA_m, symObjAddr: 0xCC44, symBinAddr: 0x10000D664, symSize: 0x2C }
  - { offset: 0x2613B, size: 0x8, addend: 0x0, symName: __ZNSt3__122__tree_node_destructorINS_9allocatorINS_11__tree_nodeINS_4pairINS_6vectorIiNS1_IiEEEES6_EEPvEEEEEC1B8ne180100ERSA_b, symObjAddr: 0xCC70, symBinAddr: 0x10000D690, symSize: 0x48 }
  - { offset: 0x26189, size: 0x8, addend: 0x0, symName: __ZNSt3__110unique_ptrINS_11__tree_nodeINS_4pairINS_6vectorIiNS_9allocatorIiEEEES6_EEPvEENS_22__tree_node_destructorINS4_IS9_EEEEEC1B8ne180100ILb1EvEEPS9_NS_16__dependent_typeINS_27__unique_ptr_deleter_sfinaeISC_EEXT_EE20__good_rval_ref_typeE, symObjAddr: 0xCCB8, symBinAddr: 0x10000D6D8, symSize: 0x3C }
  - { offset: 0x261DA, size: 0x8, addend: 0x0, symName: __ZNSt3__116allocator_traitsINS_9allocatorINS_11__tree_nodeINS_4pairINS_6vectorIiNS1_IiEEEES6_EEPvEEEEE9constructB8ne180100IS7_JS7_EvEEvRSA_PT_DpOT0_, symObjAddr: 0xCCF4, symBinAddr: 0x10000D714, symSize: 0x34 }
  - { offset: 0x26231, size: 0x8, addend: 0x0, symName: __ZNKSt3__110unique_ptrINS_11__tree_nodeINS_4pairINS_6vectorIiNS_9allocatorIiEEEES6_EEPvEENS_22__tree_node_destructorINS4_IS9_EEEEEptB8ne180100Ev, symObjAddr: 0xCD28, symBinAddr: 0x10000D748, symSize: 0x28 }
  - { offset: 0x26257, size: 0x8, addend: 0x0, symName: __ZNSt3__110unique_ptrINS_11__tree_nodeINS_4pairINS_6vectorIiNS_9allocatorIiEEEES6_EEPvEENS_22__tree_node_destructorINS4_IS9_EEEEE11get_deleterB8ne180100Ev, symObjAddr: 0xCD50, symBinAddr: 0x10000D770, symSize: 0x24 }
  - { offset: 0x2627D, size: 0x8, addend: 0x0, symName: __ZNSt3__19allocatorINS_11__tree_nodeINS_4pairINS_6vectorIiNS0_IiEEEES5_EEPvEEE8allocateB8ne180100Em, symObjAddr: 0xCD74, symBinAddr: 0x10000D794, symSize: 0x5C }
  - { offset: 0x262BC, size: 0x8, addend: 0x0, symName: __ZNSt3__116allocator_traitsINS_9allocatorINS_11__tree_nodeINS_4pairINS_6vectorIiNS1_IiEEEES6_EEPvEEEEE8max_sizeB8ne180100ISA_vEEmRKSA_, symObjAddr: 0xCDD0, symBinAddr: 0x10000D7F0, symSize: 0x24 }
  - { offset: 0x262EA, size: 0x8, addend: 0x0, symName: __ZNKSt3__19allocatorINS_11__tree_nodeINS_4pairINS_6vectorIiNS0_IiEEEES5_EEPvEEE8max_sizeB8ne180100Ev, symObjAddr: 0xCDF4, symBinAddr: 0x10000D814, symSize: 0x18 }
  - { offset: 0x26310, size: 0x8, addend: 0x0, symName: __ZNSt3__122__tree_node_destructorINS_9allocatorINS_11__tree_nodeINS_4pairINS_6vectorIiNS1_IiEEEES6_EEPvEEEEEC2B8ne180100ERSA_b, symObjAddr: 0xCE0C, symBinAddr: 0x10000D82C, symSize: 0x38 }
  - { offset: 0x26358, size: 0x8, addend: 0x0, symName: __ZNSt3__110unique_ptrINS_11__tree_nodeINS_4pairINS_6vectorIiNS_9allocatorIiEEEES6_EEPvEENS_22__tree_node_destructorINS4_IS9_EEEEEC2B8ne180100ILb1EvEEPS9_NS_16__dependent_typeINS_27__unique_ptr_deleter_sfinaeISC_EEXT_EE20__good_rval_ref_typeE, symObjAddr: 0xCE44, symBinAddr: 0x10000D864, symSize: 0x48 }
  - { offset: 0x263A9, size: 0x8, addend: 0x0, symName: __ZNSt3__117__compressed_pairIPNS_11__tree_nodeINS_4pairINS_6vectorIiNS_9allocatorIiEEEES6_EEPvEENS_22__tree_node_destructorINS4_IS9_EEEEEC1B8ne180100IRSA_SD_EEOT_OT0_, symObjAddr: 0xCE8C, symBinAddr: 0x10000D8AC, symSize: 0x3C }
  - { offset: 0x26401, size: 0x8, addend: 0x0, symName: __ZNSt3__117__compressed_pairIPNS_11__tree_nodeINS_4pairINS_6vectorIiNS_9allocatorIiEEEES6_EEPvEENS_22__tree_node_destructorINS4_IS9_EEEEEC2B8ne180100IRSA_SD_EEOT_OT0_, symObjAddr: 0xCEC8, symBinAddr: 0x10000D8E8, symSize: 0x48 }
  - { offset: 0x26459, size: 0x8, addend: 0x0, symName: __ZNSt3__122__compressed_pair_elemIPNS_11__tree_nodeINS_4pairINS_6vectorIiNS_9allocatorIiEEEES6_EEPvEELi0ELb0EEC2B8ne180100IRSA_vEEOT_, symObjAddr: 0xCF10, symBinAddr: 0x10000D930, symSize: 0x24 }
  - { offset: 0x2649B, size: 0x8, addend: 0x0, symName: __ZNSt3__122__compressed_pair_elemINS_22__tree_node_destructorINS_9allocatorINS_11__tree_nodeINS_4pairINS_6vectorIiNS2_IiEEEES7_EEPvEEEEEELi1ELb0EEC2B8ne180100ISC_vEEOT_, symObjAddr: 0xCF34, symBinAddr: 0x10000D954, symSize: 0x24 }
  - { offset: 0x264DD, size: 0x8, addend: 0x0, symName: __ZNSt3__19allocatorINS_11__tree_nodeINS_4pairINS_6vectorIiNS0_IiEEEES5_EEPvEEE9constructB8ne180100IS6_JS6_EEEvPT_DpOT0_, symObjAddr: 0xCF58, symBinAddr: 0x10000D978, symSize: 0x30 }
  - { offset: 0x26533, size: 0x8, addend: 0x0, symName: __ZNSt3__14pairINS_6vectorIiNS_9allocatorIiEEEES4_EC1B8ne180100EOS5_, symObjAddr: 0xCF88, symBinAddr: 0x10000D9A8, symSize: 0x34 }
  - { offset: 0x26567, size: 0x8, addend: 0x0, symName: __ZNSt3__14pairINS_6vectorIiNS_9allocatorIiEEEES4_EC2B8ne180100EOS5_, symObjAddr: 0xCFBC, symBinAddr: 0x10000D9DC, symSize: 0x48 }
  - { offset: 0x2659B, size: 0x8, addend: 0x0, symName: __ZNKSt3__117__compressed_pairIPNS_11__tree_nodeINS_4pairINS_6vectorIiNS_9allocatorIiEEEES6_EEPvEENS_22__tree_node_destructorINS4_IS9_EEEEE5firstB8ne180100Ev, symObjAddr: 0xD004, symBinAddr: 0x10000DA24, symSize: 0x24 }
  - { offset: 0x265C1, size: 0x8, addend: 0x0, symName: __ZNKSt3__122__compressed_pair_elemIPNS_11__tree_nodeINS_4pairINS_6vectorIiNS_9allocatorIiEEEES6_EEPvEELi0ELb0EE5__getB8ne180100Ev, symObjAddr: 0xD028, symBinAddr: 0x10000DA48, symSize: 0x14 }
  - { offset: 0x265E7, size: 0x8, addend: 0x0, symName: __ZNSt3__117__compressed_pairIPNS_11__tree_nodeINS_4pairINS_6vectorIiNS_9allocatorIiEEEES6_EEPvEENS_22__tree_node_destructorINS4_IS9_EEEEE6secondB8ne180100Ev, symObjAddr: 0xD03C, symBinAddr: 0x10000DA5C, symSize: 0x28 }
  - { offset: 0x2660D, size: 0x8, addend: 0x0, symName: __ZNSt3__122__compressed_pair_elemINS_22__tree_node_destructorINS_9allocatorINS_11__tree_nodeINS_4pairINS_6vectorIiNS2_IiEEEES7_EEPvEEEEEELi1ELb0EE5__getB8ne180100Ev, symObjAddr: 0xD064, symBinAddr: 0x10000DA84, symSize: 0x14 }
  - { offset: 0x26633, size: 0x8, addend: 0x0, symName: __ZNSt3__16__treeINS_4pairINS_6vectorIiNS_9allocatorIiEEEES5_EENS_4lessIS6_EENS3_IS6_EEE4sizeB8ne180100Ev, symObjAddr: 0xD3A4, symBinAddr: 0x10000DDC4, symSize: 0x28 }
  - { offset: 0x26659, size: 0x8, addend: 0x0, symName: __ZNKSt3__116__tree_node_baseIPvE15__parent_unsafeB8ne180100Ev, symObjAddr: 0xD3CC, symBinAddr: 0x10000DDEC, symSize: 0x18 }
  - { offset: 0x2667F, size: 0x8, addend: 0x0, symName: __ZNSt3__116__tree_node_baseIPvE12__set_parentB8ne180100EPS2_, symObjAddr: 0xD5B4, symBinAddr: 0x10000DFD4, symSize: 0x20 }
  - { offset: 0x266B4, size: 0x8, addend: 0x0, symName: __ZNSt3__117__compressed_pairImNS_4lessINS_4pairINS_6vectorIiNS_9allocatorIiEEEES6_EEEEE5firstB8ne180100Ev, symObjAddr: 0xD5D4, symBinAddr: 0x10000DFF4, symSize: 0x24 }
  - { offset: 0x266DA, size: 0x8, addend: 0x0, symName: __ZNSt3__122__compressed_pair_elemImLi0ELb0EE5__getB8ne180100Ev, symObjAddr: 0xD5F8, symBinAddr: 0x10000E018, symSize: 0x14 }
  - { offset: 0x26700, size: 0x8, addend: 0x0, symName: __ZNSt3__117__compressed_pairIPNS_11__tree_nodeINS_4pairINS_6vectorIiNS_9allocatorIiEEEES6_EEPvEENS_22__tree_node_destructorINS4_IS9_EEEEE5firstB8ne180100Ev, symObjAddr: 0xD60C, symBinAddr: 0x10000E02C, symSize: 0x24 }
  - { offset: 0x26726, size: 0x8, addend: 0x0, symName: __ZNSt3__122__compressed_pair_elemIPNS_11__tree_nodeINS_4pairINS_6vectorIiNS_9allocatorIiEEEES6_EEPvEELi0ELb0EE5__getB8ne180100Ev, symObjAddr: 0xD630, symBinAddr: 0x10000E050, symSize: 0x14 }
  - { offset: 0x2674C, size: 0x8, addend: 0x0, symName: __ZNSt3__110unique_ptrINS_11__tree_nodeINS_4pairINS_6vectorIiNS_9allocatorIiEEEES6_EEPvEENS_22__tree_node_destructorINS4_IS9_EEEEED2B8ne180100Ev, symObjAddr: 0xD644, symBinAddr: 0x10000E064, symSize: 0x30 }
  - { offset: 0x26776, size: 0x8, addend: 0x0, symName: __ZNSt3__110unique_ptrINS_11__tree_nodeINS_4pairINS_6vectorIiNS_9allocatorIiEEEES6_EEPvEENS_22__tree_node_destructorINS4_IS9_EEEEE5resetB8ne180100EPS9_, symObjAddr: 0xD674, symBinAddr: 0x10000E094, symSize: 0x78 }
  - { offset: 0x267BA, size: 0x8, addend: 0x0, symName: __ZNSt3__122__tree_node_destructorINS_9allocatorINS_11__tree_nodeINS_4pairINS_6vectorIiNS1_IiEEEES6_EEPvEEEEEclB8ne180100EPS9_, symObjAddr: 0xD6EC, symBinAddr: 0x10000E10C, symSize: 0x90 }
  - { offset: 0x267EF, size: 0x8, addend: 0x0, symName: __ZNSt3__115__tree_iteratorINS_4pairINS_6vectorIiNS_9allocatorIiEEEES5_EEPNS_11__tree_nodeIS6_PvEElEC2B8ne180100ESA_, symObjAddr: 0xD77C, symBinAddr: 0x10000E19C, symSize: 0x20 }
  - { offset: 0x26828, size: 0x8, addend: 0x0, symName: __ZNSt3__14pairINS_15__tree_iteratorINS0_INS_6vectorIiNS_9allocatorIiEEEES5_EEPNS_11__tree_nodeIS6_PvEElEEbEC2B8ne180100ISB_RbLi0EEEOT_OT0_, symObjAddr: 0xD79C, symBinAddr: 0x10000E1BC, symSize: 0x38 }
  - { offset: 0x26886, size: 0x8, addend: 0x0, symName: __ZNSt3__14pairINS_21__tree_const_iteratorINS0_INS_6vectorIiNS_9allocatorIiEEEES5_EEPNS_11__tree_nodeIS6_PvEElEEbEC2B8ne180100INS_15__tree_iteratorIS6_SA_lEEbLi0EEEONS0_IT_T0_EE, symObjAddr: 0xD7D4, symBinAddr: 0x10000E1F4, symSize: 0x50 }
  - { offset: 0x268D6, size: 0x8, addend: 0x0, symName: __ZNSt3__121__tree_const_iteratorINS_4pairINS_6vectorIiNS_9allocatorIiEEEES5_EEPNS_11__tree_nodeIS6_PvEElEC1B8ne180100ENS_15__tree_iteratorIS6_SA_lEE, symObjAddr: 0xD824, symBinAddr: 0x10000E244, symSize: 0x34 }
  - { offset: 0x2690F, size: 0x8, addend: 0x0, symName: __ZNSt3__121__tree_const_iteratorINS_4pairINS_6vectorIiNS_9allocatorIiEEEES5_EEPNS_11__tree_nodeIS6_PvEElEC2B8ne180100ENS_15__tree_iteratorIS6_SA_lEE, symObjAddr: 0xD858, symBinAddr: 0x10000E278, symSize: 0x20 }
  - { offset: 0x26948, size: 0x8, addend: 0x0, symName: __ZNKSt3__16__treeINS_4pairINS_6vectorIiNS_9allocatorIiEEEES5_EENS_4lessIS6_EENS3_IS6_EEE4sizeB8ne180100Ev, symObjAddr: 0xD878, symBinAddr: 0x10000E298, symSize: 0x28 }
  - { offset: 0x2696E, size: 0x8, addend: 0x0, symName: __ZNKSt3__117__compressed_pairImNS_4lessINS_4pairINS_6vectorIiNS_9allocatorIiEEEES6_EEEEE5firstB8ne180100Ev, symObjAddr: 0xD8A0, symBinAddr: 0x10000E2C0, symSize: 0x24 }
  - { offset: 0x26994, size: 0x8, addend: 0x0, symName: __ZNKSt3__122__compressed_pair_elemImLi0ELb0EE5__getB8ne180100Ev, symObjAddr: 0xD8C4, symBinAddr: 0x10000E2E4, symSize: 0x14 }
  - { offset: 0x269DB, size: 0x8, addend: 0x0, symName: __ZNKSt3__113basic_ostreamIcNS_11char_traitsIcEEE6sentrycvbB8ne180100Ev, symObjAddr: 0xDAC4, symBinAddr: 0x10000E4E4, symSize: 0x1C }
  - { offset: 0x26A01, size: 0x8, addend: 0x0, symName: __ZNSt3__119ostreambuf_iteratorIcNS_11char_traitsIcEEEC1B8ne180100ERNS_13basic_ostreamIcS2_EE, symObjAddr: 0xDD20, symBinAddr: 0x10000E740, symSize: 0x34 }
  - { offset: 0x26A39, size: 0x8, addend: 0x0, symName: __ZNKSt3__18ios_base5flagsB8ne180100Ev, symObjAddr: 0xDD54, symBinAddr: 0x10000E774, symSize: 0x18 }
  - { offset: 0x26A61, size: 0x8, addend: 0x0, symName: __ZNKSt3__19basic_iosIcNS_11char_traitsIcEEE4fillB8ne180100Ev, symObjAddr: 0xDD6C, symBinAddr: 0x10000E78C, symSize: 0x64 }
  - { offset: 0x26A89, size: 0x8, addend: 0x0, symName: __ZNKSt3__119ostreambuf_iteratorIcNS_11char_traitsIcEEE6failedB8ne180100Ev, symObjAddr: 0xDDD0, symBinAddr: 0x10000E7F0, symSize: 0x24 }
  - { offset: 0x26AAF, size: 0x8, addend: 0x0, symName: __ZNKSt3__18ios_base5widthB8ne180100Ev, symObjAddr: 0xDDF4, symBinAddr: 0x10000E814, symSize: 0x18 }
  - { offset: 0x26AD7, size: 0x8, addend: 0x0, symName: __ZNSt3__115basic_streambufIcNS_11char_traitsIcEEE5sputnB8ne180100EPKcl, symObjAddr: 0xDE0C, symBinAddr: 0x10000E82C, symSize: 0x3C }
  - { offset: 0x26B19, size: 0x8, addend: 0x0, symName: __ZNSt3__112basic_stringIcNS_11char_traitsIcEENS_9allocatorIcEEEC1B8ne180100Emc, symObjAddr: 0xDE48, symBinAddr: 0x10000E868, symSize: 0x3C }
  - { offset: 0x26B61, size: 0x8, addend: 0x0, symName: __ZNSt3__112basic_stringIcNS_11char_traitsIcEENS_9allocatorIcEEE4dataB8ne180100Ev, symObjAddr: 0xDE84, symBinAddr: 0x10000E8A4, symSize: 0x28 }
  - { offset: 0x26B87, size: 0x8, addend: 0x0, symName: __ZNSt3__18ios_base5widthB8ne180100El, symObjAddr: 0xDEAC, symBinAddr: 0x10000E8CC, symSize: 0x2C }
  - { offset: 0x26BCD, size: 0x8, addend: 0x0, symName: __ZNSt3__112basic_stringIcNS_11char_traitsIcEENS_9allocatorIcEEEC2B8ne180100Emc, symObjAddr: 0xDED8, symBinAddr: 0x10000E8F8, symSize: 0x4C }
  - { offset: 0x26C15, size: 0x8, addend: 0x0, symName: __ZNSt3__119ostreambuf_iteratorIcNS_11char_traitsIcEEEC2B8ne180100ERNS_13basic_ostreamIcS2_EE, symObjAddr: 0xDF38, symBinAddr: 0x10000E958, symSize: 0x54 }
...
