---
triple:          'arm64-apple-darwin'
binary-path:     '/Users/delek/Dropbox/_mbp-2020-dev/vscodeProjects/CPP_MASTER/files-by-size/fbs'
relocations:
  - { offset: 0x5C, size: 0x8, addend: 0x0, symName: __ZNSt3__119piecewise_constructE, symObjAddr: 0x7AA3, symBinAddr: 0x10000BBEF, symSize: 0x0 }
  - { offset: 0x170C, size: 0x8, addend: 0x0, symName: __ZNSt3__14__fs10filesystem6existsB8ne180100ERKNS1_4pathE, symObjAddr: 0xBBC, symBinAddr: 0x1000049B4, symSize: 0x50 }
  - { offset: 0x1738, size: 0x8, addend: 0x0, symName: __ZNSt3__14__fs10filesystem12is_directoryB8ne180100ERKNS1_4pathE, symObjAddr: 0xC0C, symBinAddr: 0x100004A04, symSize: 0x50 }
  - { offset: 0x1764, size: 0x8, addend: 0x0, symName: __ZNSt3__14__fs10filesystemlsB8ne180100IcNS_11char_traitsIcEELi0EEERNS_13basic_ostreamIT_T0_EES9_RKNS1_4pathE, symObjAddr: 0x199C, symBinAddr: 0x100005794, symSize: 0x54 }
  - { offset: 0x17B9, size: 0x8, addend: 0x0, symName: __ZNSt3__14__fs10filesystem6existsB8ne180100ENS1_11file_statusE, symObjAddr: 0x1F30, symBinAddr: 0x100005D28, symSize: 0x78 }
  - { offset: 0x17E6, size: 0x8, addend: 0x0, symName: __ZNSt3__14__fs10filesystem12status_knownB8ne180100ENS1_11file_statusE, symObjAddr: 0x1FD4, symBinAddr: 0x100005DCC, symSize: 0x30 }
  - { offset: 0x1813, size: 0x8, addend: 0x0, symName: __ZNSt3__14__fs10filesystem12is_directoryB8ne180100ENS1_11file_statusE, symObjAddr: 0x2030, symBinAddr: 0x100005E28, symSize: 0x34 }
  - { offset: 0x193D, size: 0x8, addend: 0x0, symName: __ZNSt3__14__fs10filesystem5beginB8ne180100ENS1_28recursive_directory_iteratorE, symObjAddr: 0x48E8, symBinAddr: 0x1000086E0, symSize: 0x38 }
  - { offset: 0x196A, size: 0x8, addend: 0x0, symName: __ZNSt3__14__fs10filesystem3endB8ne180100ENS1_28recursive_directory_iteratorE, symObjAddr: 0x4980, symBinAddr: 0x100008778, symSize: 0x34 }
  - { offset: 0x1993, size: 0x8, addend: 0x0, symName: __ZNSt3__14__fs10filesystemneB8ne180100ERKNS1_28recursive_directory_iteratorES4_, symObjAddr: 0x49B4, symBinAddr: 0x1000087AC, symSize: 0x34 }
  - { offset: 0x19CD, size: 0x8, addend: 0x0, symName: __ZNSt3__14__fs10filesystem15is_regular_fileB8ne180100ERKNS1_4pathE, symObjAddr: 0x4A0C, symBinAddr: 0x100008804, symSize: 0x50 }
  - { offset: 0x19F9, size: 0x8, addend: 0x0, symName: __ZNSt3__14__fs10filesystem10is_symlinkB8ne180100ERKNS1_4pathE, symObjAddr: 0x4A98, symBinAddr: 0x100008890, symSize: 0x50 }
  - { offset: 0x1A25, size: 0x8, addend: 0x0, symName: __ZNSt3__14__fs10filesystem9file_sizeB8ne180100ERKNS1_4pathE, symObjAddr: 0x4C28, symBinAddr: 0x100008A20, symSize: 0x28 }
  - { offset: 0x1A51, size: 0x8, addend: 0x0, symName: __ZNSt3__14__fs10filesystemeqB8ne180100ERKNS1_28recursive_directory_iteratorES4_, symObjAddr: 0x5158, symBinAddr: 0x100008F50, symSize: 0x30 }
  - { offset: 0x1A8B, size: 0x8, addend: 0x0, symName: __ZNSt3__14__fs10filesystem15is_regular_fileB8ne180100ENS1_11file_statusE, symObjAddr: 0x51E8, symBinAddr: 0x100008FE0, symSize: 0x34 }
  - { offset: 0x1AB8, size: 0x8, addend: 0x0, symName: __ZNSt3__14__fs10filesystem10is_symlinkB8ne180100ENS1_11file_statusE, symObjAddr: 0x521C, symBinAddr: 0x100009014, symSize: 0x34 }
  - { offset: 0x1AE5, size: 0x8, addend: 0x0, symName: __ZNSt3__14__fs10filesystem5beginB8ne180100ENS1_18directory_iteratorE, symObjAddr: 0x6BF4, symBinAddr: 0x10000A9EC, symSize: 0x38 }
  - { offset: 0x1B12, size: 0x8, addend: 0x0, symName: __ZNSt3__14__fs10filesystem3endB8ne180100ENS1_18directory_iteratorE, symObjAddr: 0x6C8C, symBinAddr: 0x10000AA84, symSize: 0x34 }
  - { offset: 0x1B3B, size: 0x8, addend: 0x0, symName: __ZNSt3__14__fs10filesystemneB8ne180100ERKNS1_18directory_iteratorES4_, symObjAddr: 0x6CC0, symBinAddr: 0x10000AAB8, symSize: 0x34 }
  - { offset: 0x1B75, size: 0x8, addend: 0x0, symName: __ZNSt3__14__fs10filesystemeqB8ne180100ERKNS1_18directory_iteratorES4_, symObjAddr: 0x7040, symBinAddr: 0x10000AE38, symSize: 0x30 }
  - { offset: 0xBFD3, size: 0x8, addend: 0x0, symName: __ZNSt3__124__put_character_sequenceB8ne180100IcNS_11char_traitsIcEEEERNS_13basic_ostreamIT_T0_EES7_PKS4_m, symObjAddr: 0x37C4, symBinAddr: 0x1000075BC, symSize: 0x1EC }
  - { offset: 0x10069, size: 0x8, addend: 0x0, symName: __ZNSt3__1plB8ne180100IcNS_11char_traitsIcEENS_9allocatorIcEEEENS_12basic_stringIT_T0_T1_EEOS9_PKS6_, symObjAddr: 0x234, symBinAddr: 0x10000402C, symSize: 0x40 }
  - { offset: 0x100C1, size: 0x8, addend: 0x0, symName: __ZNSt3__1eqB8ne180100IcNS_11char_traitsIcEENS_9allocatorIcEEEEbRKNS_12basic_stringIT_T0_T1_EEPKS6_, symObjAddr: 0x598, symBinAddr: 0x100004390, symSize: 0xAC }
  - { offset: 0x107BE, size: 0x8, addend: 0x0, symName: __ZNSt3__13getB8ne180100ILm0EJNS_4__fs10filesystem4pathEbbbEEEONS_13tuple_elementIXT_ENS_5tupleIJDpT0_EEEE4typeEOS8_, symObjAddr: 0xB20, symBinAddr: 0x100004918, symSize: 0x24 }
  - { offset: 0x10810, size: 0x8, addend: 0x0, symName: __ZNSt3__13getB8ne180100ILm1EJNS_4__fs10filesystem4pathEbbbEEEONS_13tuple_elementIXT_ENS_5tupleIJDpT0_EEEE4typeEOS8_, symObjAddr: 0xB44, symBinAddr: 0x10000493C, symSize: 0x28 }
  - { offset: 0x10862, size: 0x8, addend: 0x0, symName: __ZNSt3__13getB8ne180100ILm2EJNS_4__fs10filesystem4pathEbbbEEEONS_13tuple_elementIXT_ENS_5tupleIJDpT0_EEEE4typeEOS8_, symObjAddr: 0xB6C, symBinAddr: 0x100004964, symSize: 0x28 }
  - { offset: 0x108B4, size: 0x8, addend: 0x0, symName: __ZNSt3__13getB8ne180100ILm3EJNS_4__fs10filesystem4pathEbbbEEEONS_13tuple_elementIXT_ENS_5tupleIJDpT0_EEEE4typeEOS8_, symObjAddr: 0xB94, symBinAddr: 0x10000498C, symSize: 0x28 }
  - { offset: 0x10906, size: 0x8, addend: 0x0, symName: __ZNSt3__1lsB8ne180100INS_11char_traitsIcEEEERNS_13basic_ostreamIcT_EES6_PKc, symObjAddr: 0xC5C, symBinAddr: 0x100004A54, symSize: 0x48 }
  - { offset: 0x1094C, size: 0x8, addend: 0x0, symName: __ZNSt3__14endlB8ne180100IcNS_11char_traitsIcEEEERNS_13basic_ostreamIT_T0_EES7_, symObjAddr: 0xCD0, symBinAddr: 0x100004AC8, symSize: 0x58 }
  - { offset: 0x1098C, size: 0x8, addend: 0x0, symName: __ZNSt3__1neB8ne180100ERKNS_14__map_iteratorINS_15__tree_iteratorINS_12__value_typeINS_12basic_stringIcNS_11char_traitsIcEENS_9allocatorIcEEEEmEEPNS_11__tree_nodeIS9_PvEElEEEESH_, symObjAddr: 0x1A60, symBinAddr: 0x100005858, symSize: 0x30 }
  - { offset: 0x109C9, size: 0x8, addend: 0x0, symName: __ZNSt3__13getB8ne180100ILm0EKNS_12basic_stringIcNS_11char_traitsIcEENS_9allocatorIcEEEEmEERKNS_13tuple_elementIXT_ENS_4pairIT0_T1_EEE4typeERKSC_, symObjAddr: 0x1AB8, symBinAddr: 0x1000058B0, symSize: 0x24 }
  - { offset: 0x10A13, size: 0x8, addend: 0x0, symName: __ZNSt3__13getB8ne180100ILm1EKNS_12basic_stringIcNS_11char_traitsIcEENS_9allocatorIcEEEEmEERKNS_13tuple_elementIXT_ENS_4pairIT0_T1_EEE4typeERKSC_, symObjAddr: 0x1ADC, symBinAddr: 0x1000058D4, symSize: 0x24 }
  - { offset: 0x10A5D, size: 0x8, addend: 0x0, symName: __ZNSt3__1lsB8ne180100IcNS_11char_traitsIcEENS_9allocatorIcEEEERNS_13basic_ostreamIT_T0_EES9_RKNS_12basic_stringIS6_S7_T1_EE, symObjAddr: 0x1B00, symBinAddr: 0x1000058F8, symSize: 0x4C }
  - { offset: 0x10B6D, size: 0x8, addend: 0x0, symName: __ZNSt3__18distanceB8ne180100IPKcEENS_15iterator_traitsIT_E15difference_typeES4_S4_, symObjAddr: 0x28F8, symBinAddr: 0x1000066F0, symSize: 0x2C }
  - { offset: 0x10BB0, size: 0x8, addend: 0x0, symName: __ZNSt3__110__distanceB8ne180100IPKcEENS_15iterator_traitsIT_E15difference_typeES4_S4_NS_26random_access_iterator_tagE, symObjAddr: 0x2BC0, symBinAddr: 0x1000069B8, symSize: 0x20 }
  - { offset: 0x10BFD, size: 0x8, addend: 0x0, symName: __ZNSt3__121__is_pointer_in_rangeB8ne180100IccLi0EEEbPKT_S3_PKT0_, symObjAddr: 0x2BE0, symBinAddr: 0x1000069D8, symSize: 0x68 }
  - { offset: 0x10D06, size: 0x8, addend: 0x0, symName: __ZNSt3__119__allocate_at_leastB8ne180100INS_9allocatorIcEEEENS_19__allocation_resultINS_16allocator_traitsIT_E7pointerEEERS5_m, symObjAddr: 0x314C, symBinAddr: 0x100006F44, symSize: 0x40 }
  - { offset: 0x10F35, size: 0x8, addend: 0x0, symName: __ZNSt3__120__throw_length_errorB8ne180100EPKc, symObjAddr: 0x337C, symBinAddr: 0x100007174, symSize: 0x64 }
  - { offset: 0x10F5D, size: 0x8, addend: 0x0, symName: __ZNSt3__117__libcpp_allocateB8ne180100Emm, symObjAddr: 0x34E4, symBinAddr: 0x1000072DC, symSize: 0x60 }
  - { offset: 0x10FB7, size: 0x8, addend: 0x0, symName: __ZNSt3__124__is_overaligned_for_newB8ne180100Em, symObjAddr: 0x3544, symBinAddr: 0x10000733C, symSize: 0x20 }
  - { offset: 0x10FE5, size: 0x8, addend: 0x0, symName: __ZNSt3__121__libcpp_operator_newB8ne180100IJmSt11align_val_tEEEPvDpT_, symObjAddr: 0x3564, symBinAddr: 0x10000735C, symSize: 0x2C }
  - { offset: 0x11032, size: 0x8, addend: 0x0, symName: __ZNSt3__121__libcpp_operator_newB8ne180100IJmEEEPvDpT_, symObjAddr: 0x3590, symBinAddr: 0x100007388, symSize: 0x24 }
  - { offset: 0x1106B, size: 0x8, addend: 0x0, symName: __ZNSt3__112__to_addressB8ne180100IKcEEPT_S3_, symObjAddr: 0x35D0, symBinAddr: 0x1000073C8, symSize: 0x14 }
  - { offset: 0x110D3, size: 0x8, addend: 0x0, symName: __ZNSt3__118__constexpr_strlenB8ne180100EPKc, symObjAddr: 0x37A0, symBinAddr: 0x100007598, symSize: 0x24 }
  - { offset: 0x110FF, size: 0x8, addend: 0x0, symName: __ZNSt3__116__pad_and_outputB8ne180100IcNS_11char_traitsIcEEEENS_19ostreambuf_iteratorIT_T0_EES6_PKS4_S8_S8_RNS_8ios_baseES4_, symObjAddr: 0x39CC, symBinAddr: 0x1000077C4, symSize: 0x240 }
  - { offset: 0x111CE, size: 0x8, addend: 0x0, symName: __ZNSt3__112__to_addressB8ne180100IcEEPT_S2_, symObjAddr: 0x3E3C, symBinAddr: 0x100007C34, symSize: 0x14 }
  - { offset: 0x11203, size: 0x8, addend: 0x0, symName: __ZNSt3__19use_facetB8ne180100INS_5ctypeIcEEEERKT_RKNS_6localeE, symObjAddr: 0x3F94, symBinAddr: 0x100007D8C, symSize: 0x2C }
  - { offset: 0x11703, size: 0x8, addend: 0x0, symName: __ZNSt3__112__destroy_atB8ne180100INS_4pairIKNS_12basic_stringIcNS_11char_traitsIcEENS_9allocatorIcEEEEmEELi0EEEvPT_, symObjAddr: 0x4624, symBinAddr: 0x10000841C, symSize: 0x24 }
  - { offset: 0x1173A, size: 0x8, addend: 0x0, symName: __ZNSt3__17launderB8ne180100INS_4pairIKNS_12basic_stringIcNS_11char_traitsIcEENS_9allocatorIcEEEEmEEEEPT_SB_, symObjAddr: 0x46C4, symBinAddr: 0x1000084BC, symSize: 0x24 }
  - { offset: 0x11771, size: 0x8, addend: 0x0, symName: __ZNSt3__19__launderB8ne180100INS_4pairIKNS_12basic_stringIcNS_11char_traitsIcEENS_9allocatorIcEEEEmEEEEPT_SB_, symObjAddr: 0x46E8, symBinAddr: 0x1000084E0, symSize: 0x14 }
  - { offset: 0x117A8, size: 0x8, addend: 0x0, symName: __ZNSt3__119__libcpp_deallocateB8ne180100EPvmm, symObjAddr: 0x473C, symBinAddr: 0x100008534, symSize: 0x60 }
  - { offset: 0x1180D, size: 0x8, addend: 0x0, symName: __ZNSt3__127__do_deallocate_handle_sizeB8ne180100IJSt11align_val_tEEEvPvmDpT_, symObjAddr: 0x479C, symBinAddr: 0x100008594, symSize: 0x30 }
  - { offset: 0x11860, size: 0x8, addend: 0x0, symName: __ZNSt3__127__do_deallocate_handle_sizeB8ne180100IJEEEvPvmDpT_, symObjAddr: 0x47CC, symBinAddr: 0x1000085C4, symSize: 0x28 }
  - { offset: 0x1189E, size: 0x8, addend: 0x0, symName: __ZNSt3__124__libcpp_operator_deleteB8ne180100IJPvSt11align_val_tEEEvDpT_, symObjAddr: 0x47F4, symBinAddr: 0x1000085EC, symSize: 0x2C }
  - { offset: 0x118E7, size: 0x8, addend: 0x0, symName: __ZNSt3__124__libcpp_operator_deleteB8ne180100IJPvEEEvDpT_, symObjAddr: 0x4820, symBinAddr: 0x100008618, symSize: 0x24 }
  - { offset: 0x1191C, size: 0x8, addend: 0x0, symName: __ZNSt3__134__libcpp_atomic_refcount_incrementB8ne180100IlEET_RS1_, symObjAddr: 0x4EF0, symBinAddr: 0x100008CE8, symSize: 0x30 }
  - { offset: 0x11951, size: 0x8, addend: 0x0, symName: __ZNSt3__134__libcpp_atomic_refcount_decrementB8ne180100IlEET_RS1_, symObjAddr: 0x5084, symBinAddr: 0x100008E7C, symSize: 0x30 }
  - { offset: 0x11986, size: 0x8, addend: 0x0, symName: __ZNSt3__1eqB8ne180100INS_4__fs10filesystem28recursive_directory_iterator12__shared_impES4_EEbRKNS_10shared_ptrIT_EERKNS5_IT0_EE, symObjAddr: 0x5188, symBinAddr: 0x100008F80, symSize: 0x48 }
  - { offset: 0x11A0C, size: 0x8, addend: 0x0, symName: __ZNSt3__116forward_as_tupleB8ne180100IJRKNS_12basic_stringIcNS_11char_traitsIcEENS_9allocatorIcEEEEEEENS_5tupleIJDpOT_EEESC_, symObjAddr: 0x5498, symBinAddr: 0x100009290, symSize: 0x2C }
  - { offset: 0x11A45, size: 0x8, addend: 0x0, symName: __ZNSt3__116forward_as_tupleB8ne180100IJEEENS_5tupleIJDpOT_EEES4_, symObjAddr: 0x54C4, symBinAddr: 0x1000092BC, symSize: 0x4 }
  - { offset: 0x11A69, size: 0x8, addend: 0x0, symName: __ZNSt3__1ltB8ne180100IcNS_11char_traitsIcEENS_9allocatorIcEEEEbRKNS_12basic_stringIT_T0_T1_EESB_, symObjAddr: 0x5AE0, symBinAddr: 0x1000098D8, symSize: 0x38 }
  - { offset: 0x11AC1, size: 0x8, addend: 0x0, symName: __ZNSt3__13minB8ne180100ImEERKT_S3_S3_, symObjAddr: 0x5D14, symBinAddr: 0x100009B0C, symSize: 0x2C }
  - { offset: 0x11B04, size: 0x8, addend: 0x0, symName: __ZNSt3__13minB8ne180100ImNS_6__lessIvvEEEERKT_S5_S5_T0_, symObjAddr: 0x5D40, symBinAddr: 0x100009B38, symSize: 0x54 }
  - { offset: 0x11B5E, size: 0x8, addend: 0x0, symName: __ZNSt3__17launderB8ne180100IKNS_4pairIKNS_12basic_stringIcNS_11char_traitsIcEENS_9allocatorIcEEEEmEEEEPT_SC_, symObjAddr: 0x5E30, symBinAddr: 0x100009C28, symSize: 0x24 }
  - { offset: 0x11B95, size: 0x8, addend: 0x0, symName: __ZNSt3__19__launderB8ne180100IKNS_4pairIKNS_12basic_stringIcNS_11char_traitsIcEENS_9allocatorIcEEEEmEEEEPT_SC_, symObjAddr: 0x5E54, symBinAddr: 0x100009C4C, symSize: 0x14 }
  - { offset: 0x11BEA, size: 0x8, addend: 0x0, symName: __ZNSt3__13getB8ne180100ILm0EJRKNS_12basic_stringIcNS_11char_traitsIcEENS_9allocatorIcEEEEEEERNS_13tuple_elementIXT_ENS_5tupleIJDpT0_EEEE4typeERSD_, symObjAddr: 0x6288, symBinAddr: 0x10000A080, symSize: 0x24 }
  - { offset: 0x11C2D, size: 0x8, addend: 0x0, symName: __ZNSt3__127__tree_balance_after_insertB8ne180100IPNS_16__tree_node_baseIPvEEEEvT_S5_, symObjAddr: 0x6338, symBinAddr: 0x10000A130, symSize: 0x32C }
  - { offset: 0x11CA9, size: 0x8, addend: 0x0, symName: __ZNSt3__120__tree_is_left_childB8ne180100IPNS_16__tree_node_baseIPvEEEEbT_, symObjAddr: 0x66A4, symBinAddr: 0x10000A49C, symSize: 0x2C }
  - { offset: 0x11CDE, size: 0x8, addend: 0x0, symName: __ZNSt3__118__tree_left_rotateB8ne180100IPNS_16__tree_node_baseIPvEEEEvT_, symObjAddr: 0x66D0, symBinAddr: 0x10000A4C8, symSize: 0xD8 }
  - { offset: 0x11D1D, size: 0x8, addend: 0x0, symName: __ZNSt3__119__tree_right_rotateB8ne180100IPNS_16__tree_node_baseIPvEEEEvT_, symObjAddr: 0x67A8, symBinAddr: 0x10000A5A0, symSize: 0xCC }
  - { offset: 0x11DA7, size: 0x8, addend: 0x0, symName: __ZNSt3__1eqB8ne180100INS_4__fs10filesystem12__dir_streamES3_EEbRKNS_10shared_ptrIT_EERKNS4_IT0_EE, symObjAddr: 0x7070, symBinAddr: 0x10000AE68, symSize: 0x48 }
  - { offset: 0x11DF6, size: 0x8, addend: 0x0, symName: __ZNSt3__1lsB8ne180100INS_11char_traitsIcEELPv0EEERNS_13basic_ostreamIcT_EES7_RKNS_21__quoted_output_proxyIcS2_EE, symObjAddr: 0x70D0, symBinAddr: 0x10000AEC8, symSize: 0x48 }
  - { offset: 0x11E42, size: 0x8, addend: 0x0, symName: __ZNSt3__18__quotedB8ne180100IcNS_11char_traitsIcEENS_9allocatorIcEEEENS_21__quoted_output_proxyIT_T0_EERKNS_12basic_stringIS6_S7_T1_EES6_S6_, symObjAddr: 0x7118, symBinAddr: 0x10000AF10, symSize: 0x68 }
  - { offset: 0x11EA9, size: 0x8, addend: 0x0, symName: __ZNSt3__115__quoted_outputB8ne180100IcNS_11char_traitsIcEEEERNS_13basic_ostreamIT_T0_EES7_PKS4_S9_S4_S4_, symObjAddr: 0x7194, symBinAddr: 0x10000AF8C, symSize: 0x148 }
  - { offset: 0x11FA7, size: 0x8, addend: 0x0, symName: __ZNSt3__1neB8ne180100ERKNS_15__tree_iteratorINS_12__value_typeINS_12basic_stringIcNS_11char_traitsIcEENS_9allocatorIcEEEEmEEPNS_11__tree_nodeIS8_PvEElEESF_, symObjAddr: 0x74A4, symBinAddr: 0x10000B29C, symSize: 0x34 }
  - { offset: 0x11FE4, size: 0x8, addend: 0x0, symName: __ZNSt3__1eqB8ne180100ERKNS_15__tree_iteratorINS_12__value_typeINS_12basic_stringIcNS_11char_traitsIcEENS_9allocatorIcEEEEmEEPNS_11__tree_nodeIS8_PvEElEESF_, symObjAddr: 0x74D8, symBinAddr: 0x10000B2D0, symSize: 0x30 }
  - { offset: 0x12021, size: 0x8, addend: 0x0, symName: __ZNSt3__116__tree_next_iterB8ne180100IPNS_15__tree_end_nodeIPNS_16__tree_node_baseIPvEEEES5_EET_T0_, symObjAddr: 0x7540, symBinAddr: 0x10000B338, symSize: 0x80 }
  - { offset: 0x1205F, size: 0x8, addend: 0x0, symName: __ZNSt3__110__tree_minB8ne180100IPNS_16__tree_node_baseIPvEEEET_S5_, symObjAddr: 0x75C0, symBinAddr: 0x10000B3B8, symSize: 0x40 }
  - { offset: 0x13288, size: 0x8, addend: 0x0, symName: __ZSt28__throw_bad_array_new_lengthB8ne180100v, symObjAddr: 0x34B0, symBinAddr: 0x1000072A8, symSize: 0x34 }
  - { offset: 0x141B6, size: 0x8, addend: 0x0, symName: __Z11format_sizemb, symObjAddr: 0x0, symBinAddr: 0x100003DF8, symSize: 0x234 }
  - { offset: 0x1421D, size: 0x8, addend: 0x0, symName: __Z15parse_argumentsiPPc, symObjAddr: 0x274, symBinAddr: 0x10000406C, symSize: 0x280 }
  - { offset: 0x142C5, size: 0x8, addend: 0x0, symName: __ZNSt16invalid_argumentC1B8ne180100EPKc, symObjAddr: 0x4F4, symBinAddr: 0x1000042EC, symSize: 0x34 }
  - { offset: 0x14307, size: 0x8, addend: 0x0, symName: __ZNSt3__14__fs10filesystem4pathC1B8ne180100IPcvEERKT_NS2_6formatE, symObjAddr: 0x528, symBinAddr: 0x100004320, symSize: 0x3C }
  - { offset: 0x1435B, size: 0x8, addend: 0x0, symName: __ZNSt3__112basic_stringIcNS_11char_traitsIcEENS_9allocatorIcEEEC1B8ne180100ILi0EEEPKc, symObjAddr: 0x564, symBinAddr: 0x10000435C, symSize: 0x34 }
  - { offset: 0x1439A, size: 0x8, addend: 0x0, symName: __ZNSt16invalid_argumentC1B8ne180100ERKNSt3__112basic_stringIcNS0_11char_traitsIcEENS0_9allocatorIcEEEE, symObjAddr: 0x644, symBinAddr: 0x10000443C, symSize: 0x34 }
  - { offset: 0x14491, size: 0x8, addend: 0x0, symName: __ZNSt3__15tupleIJNS_4__fs10filesystem4pathEbbbEEC1B8ne180100IJRS3_RbS7_S7_ELi0EEEDpOT_, symObjAddr: 0x678, symBinAddr: 0x100004470, symSize: 0x4C }
  - { offset: 0x14517, size: 0x8, addend: 0x0, symName: __ZNSt3__14__fs10filesystem4pathD1B8ne180100Ev, symObjAddr: 0x6C4, symBinAddr: 0x1000044BC, symSize: 0x2C }
  - { offset: 0x14541, size: 0x8, addend: 0x0, symName: _main, symObjAddr: 0x6F0, symBinAddr: 0x1000044E8, symSize: 0x430 }
  - { offset: 0x14645, size: 0x8, addend: 0x0, symName: __ZNSt3__113basic_ostreamIcNS_11char_traitsIcEEElsB8ne180100EPFRS3_S4_E, symObjAddr: 0xCA4, symBinAddr: 0x100004A9C, symSize: 0x2C }
  - { offset: 0x14679, size: 0x8, addend: 0x0, symName: __ZNSt3__13mapINS_12basic_stringIcNS_11char_traitsIcEENS_9allocatorIcEEEEmNS_4lessIS6_EENS4_INS_4pairIKS6_mEEEEEC1B8ne180100Ev, symObjAddr: 0xD28, symBinAddr: 0x100004B20, symSize: 0x2C }
  - { offset: 0x146A2, size: 0x8, addend: 0x0, symName: __Z13process_filesINSt3__14__fs10filesystem28recursive_directory_iteratorEEvRKNS2_4pathERNS0_3mapINS0_12basic_stringIcNS0_11char_traitsIcEENS0_9allocatorIcEEEEmNS0_4lessISD_EENSB_INS0_4pairIKSD_mEEEEEEb, symObjAddr: 0xD54, symBinAddr: 0x100004B4C, symSize: 0x628 }
  - { offset: 0x147E4, size: 0x8, addend: 0x0, symName: __Z13process_filesINSt3__14__fs10filesystem18directory_iteratorEEvRKNS2_4pathERNS0_3mapINS0_12basic_stringIcNS0_11char_traitsIcEENS0_9allocatorIcEEEEmNS0_4lessISD_EENSB_INS0_4pairIKSD_mEEEEEEb, symObjAddr: 0x137C, symBinAddr: 0x100005174, symSize: 0x620 }
  - { offset: 0x14927, size: 0x8, addend: 0x0, symName: __ZNSt3__13mapINS_12basic_stringIcNS_11char_traitsIcEENS_9allocatorIcEEEEmNS_4lessIS6_EENS4_INS_4pairIKS6_mEEEEE5beginB8ne180100Ev, symObjAddr: 0x19F0, symBinAddr: 0x1000057E8, symSize: 0x38 }
  - { offset: 0x1494D, size: 0x8, addend: 0x0, symName: __ZNSt3__13mapINS_12basic_stringIcNS_11char_traitsIcEENS_9allocatorIcEEEEmNS_4lessIS6_EENS4_INS_4pairIKS6_mEEEEE3endB8ne180100Ev, symObjAddr: 0x1A28, symBinAddr: 0x100005820, symSize: 0x38 }
  - { offset: 0x14973, size: 0x8, addend: 0x0, symName: __ZNKSt3__114__map_iteratorINS_15__tree_iteratorINS_12__value_typeINS_12basic_stringIcNS_11char_traitsIcEENS_9allocatorIcEEEEmEEPNS_11__tree_nodeIS9_PvEElEEEdeB8ne180100Ev, symObjAddr: 0x1A90, symBinAddr: 0x100005888, symSize: 0x28 }
  - { offset: 0x14999, size: 0x8, addend: 0x0, symName: __ZNKSt3__112basic_stringIcNS_11char_traitsIcEENS_9allocatorIcEEE5emptyB8ne180100Ev, symObjAddr: 0x1B4C, symBinAddr: 0x100005944, symSize: 0x30 }
  - { offset: 0x149BF, size: 0x8, addend: 0x0, symName: __ZNSt3__114__map_iteratorINS_15__tree_iteratorINS_12__value_typeINS_12basic_stringIcNS_11char_traitsIcEENS_9allocatorIcEEEEmEEPNS_11__tree_nodeIS9_PvEElEEEppB8ne180100Ev, symObjAddr: 0x1B7C, symBinAddr: 0x100005974, symSize: 0x2C }
  - { offset: 0x149E5, size: 0x8, addend: 0x0, symName: __ZNSt3__13mapINS_12basic_stringIcNS_11char_traitsIcEENS_9allocatorIcEEEEmNS_4lessIS6_EENS4_INS_4pairIKS6_mEEEEED1B8ne180100Ev, symObjAddr: 0x1BA8, symBinAddr: 0x1000059A0, symSize: 0x2C }
  - { offset: 0x14A0F, size: 0x8, addend: 0x0, symName: __ZNSt3__15tupleIJNS_4__fs10filesystem4pathEbbbEED1Ev, symObjAddr: 0x1BD4, symBinAddr: 0x1000059CC, symSize: 0x2C }
  - { offset: 0x14A3C, size: 0x8, addend: 0x0, symName: __ZNSt16invalid_argumentC2B8ne180100EPKc, symObjAddr: 0x1C10, symBinAddr: 0x100005A08, symSize: 0x44 }
  - { offset: 0x14A74, size: 0x8, addend: 0x0, symName: __ZNSt16invalid_argumentC2B8ne180100ERKNSt3__112basic_stringIcNS0_11char_traitsIcEENS0_9allocatorIcEEEE, symObjAddr: 0x1C54, symBinAddr: 0x100005A4C, symSize: 0x44 }
  - { offset: 0x14AAC, size: 0x8, addend: 0x0, symName: __ZNSt3__15tupleIJNS_4__fs10filesystem4pathEbbbEEC2B8ne180100IJRS3_RbS7_S7_ELi0EEEDpOT_, symObjAddr: 0x1C98, symBinAddr: 0x100005A90, symSize: 0x4C }
  - { offset: 0x14B32, size: 0x8, addend: 0x0, symName: __ZNSt3__112__tuple_implINS_15__tuple_indicesIJLm0ELm1ELm2ELm3EEEEJNS_4__fs10filesystem4pathEbbbEEC1B8ne180100IJLm0ELm1ELm2ELm3EEJS5_bbbEJEJEJRS5_RbS9_S9_EEENS1_IJXspT_EEEENS_13__tuple_typesIJDpT0_EEENS1_IJXspT1_EEEENSB_IJDpT2_EEEDpOT3_, symObjAddr: 0x1CE4, symBinAddr: 0x100005ADC, symSize: 0x4C }
  - { offset: 0x14C24, size: 0x8, addend: 0x0, symName: __ZNSt3__112__tuple_implINS_15__tuple_indicesIJLm0ELm1ELm2ELm3EEEEJNS_4__fs10filesystem4pathEbbbEEC2B8ne180100IJLm0ELm1ELm2ELm3EEJS5_bbbEJEJEJRS5_RbS9_S9_EEENS1_IJXspT_EEEENS_13__tuple_typesIJDpT0_EEENS1_IJXspT1_EEEENSB_IJDpT2_EEEDpOT3_, symObjAddr: 0x1D30, symBinAddr: 0x100005B28, symSize: 0x70 }
  - { offset: 0x14D16, size: 0x8, addend: 0x0, symName: __ZNSt3__112__tuple_leafILm0ENS_4__fs10filesystem4pathELb0EEC2B8ne180100IRS3_vEEOT_, symObjAddr: 0x1DA0, symBinAddr: 0x100005B98, symSize: 0x34 }
  - { offset: 0x14D59, size: 0x8, addend: 0x0, symName: __ZNSt3__112__tuple_leafILm1EbLb0EEC2B8ne180100IRbvEEOT_, symObjAddr: 0x1DD4, symBinAddr: 0x100005BCC, symSize: 0x28 }
  - { offset: 0x14D9C, size: 0x8, addend: 0x0, symName: __ZNSt3__112__tuple_leafILm2EbLb0EEC2B8ne180100IRbvEEOT_, symObjAddr: 0x1DFC, symBinAddr: 0x100005BF4, symSize: 0x28 }
  - { offset: 0x14DDF, size: 0x8, addend: 0x0, symName: __ZNSt3__112__tuple_leafILm3EbLb0EEC2B8ne180100IRbvEEOT_, symObjAddr: 0x1E24, symBinAddr: 0x100005C1C, symSize: 0x28 }
  - { offset: 0x14E22, size: 0x8, addend: 0x0, symName: __ZNSt3__14__fs10filesystem4pathC1B8ne180100ERKS2_, symObjAddr: 0x1E4C, symBinAddr: 0x100005C44, symSize: 0x34 }
  - { offset: 0x14E5B, size: 0x8, addend: 0x0, symName: __ZNSt3__14__fs10filesystem4pathC2B8ne180100ERKS2_, symObjAddr: 0x1E80, symBinAddr: 0x100005C78, symSize: 0x34 }
  - { offset: 0x14E94, size: 0x8, addend: 0x0, symName: __ZNSt3__14__fs10filesystem4pathD2B8ne180100Ev, symObjAddr: 0x1EB4, symBinAddr: 0x100005CAC, symSize: 0x2C }
  - { offset: 0x14EBE, size: 0x8, addend: 0x0, symName: __ZNSt3__112__tuple_leafILm0ENS_4__fs10filesystem4pathELb0EE3getB8ne180100Ev, symObjAddr: 0x1EE0, symBinAddr: 0x100005CD8, symSize: 0x14 }
  - { offset: 0x14EE4, size: 0x8, addend: 0x0, symName: __ZNSt3__112__tuple_leafILm1EbLb0EE3getB8ne180100Ev, symObjAddr: 0x1EF4, symBinAddr: 0x100005CEC, symSize: 0x14 }
  - { offset: 0x14F0A, size: 0x8, addend: 0x0, symName: __ZNSt3__112__tuple_leafILm2EbLb0EE3getB8ne180100Ev, symObjAddr: 0x1F08, symBinAddr: 0x100005D00, symSize: 0x14 }
  - { offset: 0x14F30, size: 0x8, addend: 0x0, symName: __ZNSt3__112__tuple_leafILm3EbLb0EE3getB8ne180100Ev, symObjAddr: 0x1F1C, symBinAddr: 0x100005D14, symSize: 0x14 }
  - { offset: 0x14F56, size: 0x8, addend: 0x0, symName: __ZNSt3__14__fs10filesystem11file_statusD1B8ne180100Ev, symObjAddr: 0x1FA8, symBinAddr: 0x100005DA0, symSize: 0x2C }
  - { offset: 0x14F80, size: 0x8, addend: 0x0, symName: __ZNKSt3__14__fs10filesystem11file_status4typeB8ne180100Ev, symObjAddr: 0x2004, symBinAddr: 0x100005DFC, symSize: 0x18 }
  - { offset: 0x14FA6, size: 0x8, addend: 0x0, symName: __ZNSt3__14__fs10filesystem11file_statusD2B8ne180100Ev, symObjAddr: 0x201C, symBinAddr: 0x100005E14, symSize: 0x14 }
  - { offset: 0x14FD0, size: 0x8, addend: 0x0, symName: __ZNSt3__110__get_pairILm0EE3getB8ne180100IKNS_12basic_stringIcNS_11char_traitsIcEENS_9allocatorIcEEEEmEERKT_RKNS_4pairISA_T0_EE, symObjAddr: 0x2064, symBinAddr: 0x100005E5C, symSize: 0x14 }
  - { offset: 0x15006, size: 0x8, addend: 0x0, symName: __ZNSt3__110__get_pairILm1EE3getB8ne180100IKNS_12basic_stringIcNS_11char_traitsIcEENS_9allocatorIcEEEEmEERKT0_RKNS_4pairIT_SA_EE, symObjAddr: 0x2078, symBinAddr: 0x100005E70, symSize: 0x18 }
  - { offset: 0x1503C, size: 0x8, addend: 0x0, symName: __ZNSt3__15tupleIJNS_4__fs10filesystem4pathEbbbEED2Ev, symObjAddr: 0x2090, symBinAddr: 0x100005E88, symSize: 0x2C }
  - { offset: 0x15069, size: 0x8, addend: 0x0, symName: __ZNSt3__112__tuple_implINS_15__tuple_indicesIJLm0ELm1ELm2ELm3EEEEJNS_4__fs10filesystem4pathEbbbEED1Ev, symObjAddr: 0x20BC, symBinAddr: 0x100005EB4, symSize: 0x2C }
  - { offset: 0x15096, size: 0x8, addend: 0x0, symName: __ZNSt3__112__tuple_implINS_15__tuple_indicesIJLm0ELm1ELm2ELm3EEEEJNS_4__fs10filesystem4pathEbbbEED2Ev, symObjAddr: 0x20E8, symBinAddr: 0x100005EE0, symSize: 0x2C }
  - { offset: 0x150C3, size: 0x8, addend: 0x0, symName: __ZNSt3__112__tuple_leafILm0ENS_4__fs10filesystem4pathELb0EED2Ev, symObjAddr: 0x2114, symBinAddr: 0x100005F0C, symSize: 0x2C }
  - { offset: 0x150F0, size: 0x8, addend: 0x0, symName: __ZNKSt3__112basic_stringIcNS_11char_traitsIcEENS_9allocatorIcEEE4sizeB8ne180100Ev, symObjAddr: 0x2140, symBinAddr: 0x100005F38, symSize: 0x54 }
  - { offset: 0x15116, size: 0x8, addend: 0x0, symName: __ZNKSt3__112basic_stringIcNS_11char_traitsIcEENS_9allocatorIcEEE9__is_longB8ne180100Ev, symObjAddr: 0x2194, symBinAddr: 0x100005F8C, symSize: 0x38 }
  - { offset: 0x1513C, size: 0x8, addend: 0x0, symName: __ZNKSt3__112basic_stringIcNS_11char_traitsIcEENS_9allocatorIcEEE15__get_long_sizeB8ne180100Ev, symObjAddr: 0x21CC, symBinAddr: 0x100005FC4, symSize: 0x28 }
  - { offset: 0x15162, size: 0x8, addend: 0x0, symName: __ZNKSt3__112basic_stringIcNS_11char_traitsIcEENS_9allocatorIcEEE16__get_short_sizeB8ne180100Ev, symObjAddr: 0x21F4, symBinAddr: 0x100005FEC, symSize: 0x34 }
  - { offset: 0x15188, size: 0x8, addend: 0x0, symName: __ZNKSt3__117__compressed_pairINS_12basic_stringIcNS_11char_traitsIcEENS_9allocatorIcEEE5__repES5_E5firstB8ne180100Ev, symObjAddr: 0x2228, symBinAddr: 0x100006020, symSize: 0x24 }
  - { offset: 0x151AE, size: 0x8, addend: 0x0, symName: __ZNKSt3__122__compressed_pair_elemINS_12basic_stringIcNS_11char_traitsIcEENS_9allocatorIcEEE5__repELi0ELb0EE5__getB8ne180100Ev, symObjAddr: 0x224C, symBinAddr: 0x100006044, symSize: 0x14 }
  - { offset: 0x151D4, size: 0x8, addend: 0x0, symName: __ZNSt3__112basic_stringIcNS_11char_traitsIcEENS_9allocatorIcEEEC1B8ne180100EOS5_, symObjAddr: 0x2260, symBinAddr: 0x100006058, symSize: 0x34 }
  - { offset: 0x1520D, size: 0x8, addend: 0x0, symName: __ZNSt3__112basic_stringIcNS_11char_traitsIcEENS_9allocatorIcEEEC2B8ne180100EOS5_, symObjAddr: 0x2294, symBinAddr: 0x10000608C, symSize: 0xB8 }
  - { offset: 0x15277, size: 0x8, addend: 0x0, symName: __ZZNSt3__112basic_stringIcNS_11char_traitsIcEENS_9allocatorIcEEEC1B8ne180100EOS5_ENKUlRS5_E_clES7_, symObjAddr: 0x234C, symBinAddr: 0x100006144, symSize: 0x40 }
  - { offset: 0x152B0, size: 0x8, addend: 0x0, symName: __ZNSt3__117__compressed_pairINS_12basic_stringIcNS_11char_traitsIcEENS_9allocatorIcEEE5__repES5_E5firstB8ne180100Ev, symObjAddr: 0x238C, symBinAddr: 0x100006184, symSize: 0x24 }
  - { offset: 0x152D6, size: 0x8, addend: 0x0, symName: __ZNKSt3__112basic_stringIcNS_11char_traitsIcEENS_9allocatorIcEEE14__annotate_newB8ne180100Em, symObjAddr: 0x23B0, symBinAddr: 0x1000061A8, symSize: 0x14 }
  - { offset: 0x1530B, size: 0x8, addend: 0x0, symName: __ZNKSt3__112basic_stringIcNS_11char_traitsIcEENS_9allocatorIcEEE17__annotate_deleteB8ne180100Ev, symObjAddr: 0x23C4, symBinAddr: 0x1000061BC, symSize: 0x10 }
  - { offset: 0x15331, size: 0x8, addend: 0x0, symName: __ZNSt3__122__compressed_pair_elemINS_12basic_stringIcNS_11char_traitsIcEENS_9allocatorIcEEE5__repELi0ELb0EE5__getB8ne180100Ev, symObjAddr: 0x23D4, symBinAddr: 0x1000061CC, symSize: 0x14 }
  - { offset: 0x15357, size: 0x8, addend: 0x0, symName: __ZNSt3__14__fs10filesystem4pathC2B8ne180100IPcvEERKT_NS2_6formatE, symObjAddr: 0x23E8, symBinAddr: 0x1000061E0, symSize: 0x68 }
  - { offset: 0x153A6, size: 0x8, addend: 0x0, symName: __ZNSt3__112basic_stringIcNS_11char_traitsIcEENS_9allocatorIcEEEC1B8ne180100Ev, symObjAddr: 0x2450, symBinAddr: 0x100006248, symSize: 0x2C }
  - { offset: 0x153D5, size: 0x8, addend: 0x0, symName: __ZNSt3__14__fs10filesystem8_PathCVTIcE15__append_sourceB8ne180100IPcEEvRNS_12basic_stringIcNS_11char_traitsIcEENS_9allocatorIcEEEERKT_, symObjAddr: 0x247C, symBinAddr: 0x100006274, symSize: 0x54 }
  - { offset: 0x15411, size: 0x8, addend: 0x0, symName: __ZNSt3__112basic_stringIcNS_11char_traitsIcEENS_9allocatorIcEEEC2B8ne180100Ev, symObjAddr: 0x24D0, symBinAddr: 0x1000062C8, symSize: 0x48 }
  - { offset: 0x15447, size: 0x8, addend: 0x0, symName: __ZNSt3__117__compressed_pairINS_12basic_stringIcNS_11char_traitsIcEENS_9allocatorIcEEE5__repES5_EC1B8ne180100INS_16__value_init_tagENS_18__default_init_tagEEEOT_OT0_, symObjAddr: 0x2518, symBinAddr: 0x100006310, symSize: 0x3C }
  - { offset: 0x1549F, size: 0x8, addend: 0x0, symName: __ZNSt3__117__compressed_pairINS_12basic_stringIcNS_11char_traitsIcEENS_9allocatorIcEEE5__repES5_EC2B8ne180100INS_16__value_init_tagENS_18__default_init_tagEEEOT_OT0_, symObjAddr: 0x2554, symBinAddr: 0x10000634C, symSize: 0x3C }
  - { offset: 0x154F7, size: 0x8, addend: 0x0, symName: __ZNSt3__122__compressed_pair_elemINS_12basic_stringIcNS_11char_traitsIcEENS_9allocatorIcEEE5__repELi0ELb0EEC2B8ne180100ENS_16__value_init_tagE, symObjAddr: 0x2590, symBinAddr: 0x100006388, symSize: 0x20 }
  - { offset: 0x1552B, size: 0x8, addend: 0x0, symName: __ZNSt3__122__compressed_pair_elemINS_9allocatorIcEELi1ELb1EEC2B8ne180100ENS_18__default_init_tagE, symObjAddr: 0x25B0, symBinAddr: 0x1000063A8, symSize: 0x2C }
  - { offset: 0x1555F, size: 0x8, addend: 0x0, symName: __ZNSt3__19allocatorIcEC2B8ne180100Ev, symObjAddr: 0x25DC, symBinAddr: 0x1000063D4, symSize: 0x2C }
  - { offset: 0x15589, size: 0x8, addend: 0x0, symName: __ZNSt3__116__non_trivial_ifILb1ENS_9allocatorIcEEEC2B8ne180100Ev, symObjAddr: 0x2608, symBinAddr: 0x100006400, symSize: 0x14 }
  - { offset: 0x155B3, size: 0x8, addend: 0x0, symName: __ZNSt3__14__fs10filesystem8_PathCVTIcE14__append_rangeB8ne180100IPKcLi0EEEvRNS_12basic_stringIcNS_11char_traitsIcEENS_9allocatorIcEEEET_SE_, symObjAddr: 0x261C, symBinAddr: 0x100006414, symSize: 0x34 }
  - { offset: 0x15604, size: 0x8, addend: 0x0, symName: __ZNSt3__14__fs10filesystem24__is_pathable_char_arrayIPcS3_cLb1EE13__range_beginB8ne180100EPKc, symObjAddr: 0x2650, symBinAddr: 0x100006448, symSize: 0x14 }
  - { offset: 0x15627, size: 0x8, addend: 0x0, symName: __ZNSt3__14__fs10filesystem24__is_pathable_char_arrayIPcS3_cLb1EE11__range_endB8ne180100EPKc, symObjAddr: 0x2664, symBinAddr: 0x10000645C, symSize: 0x50 }
  - { offset: 0x15671, size: 0x8, addend: 0x0, symName: __ZNSt3__112basic_stringIcNS_11char_traitsIcEENS_9allocatorIcEEE6appendB8ne180100IPKcLi0EEERS5_T_SA_, symObjAddr: 0x26B4, symBinAddr: 0x1000064AC, symSize: 0x1F0 }
  - { offset: 0x15725, size: 0x8, addend: 0x0, symName: __ZNKSt3__112basic_stringIcNS_11char_traitsIcEENS_9allocatorIcEEE8capacityB8ne180100Ev, symObjAddr: 0x28A4, symBinAddr: 0x10000669C, symSize: 0x54 }
  - { offset: 0x1574B, size: 0x8, addend: 0x0, symName: __ZNKSt3__112basic_stringIcNS_11char_traitsIcEENS_9allocatorIcEEE15__addr_in_rangeB8ne180100IcEEbRKT_, symObjAddr: 0x2924, symBinAddr: 0x10000671C, symSize: 0x6C }
  - { offset: 0x15789, size: 0x8, addend: 0x0, symName: __ZNSt3__112basic_stringIcNS_11char_traitsIcEENS_9allocatorIcEEE25__grow_by_without_replaceB8ne180100Emmmmmm, symObjAddr: 0x2990, symBinAddr: 0x100006788, symSize: 0x90 }
  - { offset: 0x1580B, size: 0x8, addend: 0x0, symName: __ZNKSt3__112basic_stringIcNS_11char_traitsIcEENS_9allocatorIcEEE19__annotate_increaseB8ne180100Em, symObjAddr: 0x2A20, symBinAddr: 0x100006818, symSize: 0x14 }
  - { offset: 0x15840, size: 0x8, addend: 0x0, symName: __ZNSt3__112basic_stringIcNS_11char_traitsIcEENS_9allocatorIcEEE13__get_pointerB8ne180100Ev, symObjAddr: 0x2A34, symBinAddr: 0x10000682C, symSize: 0x54 }
  - { offset: 0x15866, size: 0x8, addend: 0x0, symName: __ZNSt3__111char_traitsIcE6assignB8ne180100ERcRKc, symObjAddr: 0x2A88, symBinAddr: 0x100006880, symSize: 0x24 }
  - { offset: 0x15897, size: 0x8, addend: 0x0, symName: __ZNSt3__112basic_stringIcNS_11char_traitsIcEENS_9allocatorIcEEE10__set_sizeB8ne180100Em, symObjAddr: 0x2AAC, symBinAddr: 0x1000068A4, symSize: 0x54 }
  - { offset: 0x158CC, size: 0x8, addend: 0x0, symName: __ZNSt3__112basic_stringIcNS_11char_traitsIcEENS_9allocatorIcEEE7__allocB8ne180100Ev, symObjAddr: 0x2B00, symBinAddr: 0x1000068F8, symSize: 0x24 }
  - { offset: 0x158F2, size: 0x8, addend: 0x0, symName: __ZNSt3__112basic_stringIcNS_11char_traitsIcEENS_9allocatorIcEEEC1B8ne180100IPKcLi0EEET_S9_RKS4_, symObjAddr: 0x2B24, symBinAddr: 0x10000691C, symSize: 0x44 }
  - { offset: 0x15958, size: 0x8, addend: 0x0, symName: __ZNKSt3__112basic_stringIcNS_11char_traitsIcEENS_9allocatorIcEEE4dataB8ne180100Ev, symObjAddr: 0x2B68, symBinAddr: 0x100006960, symSize: 0x28 }
  - { offset: 0x1597E, size: 0x8, addend: 0x0, symName: __ZNKSt3__112basic_stringIcNS_11char_traitsIcEENS_9allocatorIcEEE14__get_long_capB8ne180100Ev, symObjAddr: 0x2B90, symBinAddr: 0x100006988, symSize: 0x30 }
  - { offset: 0x159B8, size: 0x8, addend: 0x0, symName: __ZNKSt3__16__lessIvvEclB8ne180100IPKcS4_EEbRKT_RKT0_, symObjAddr: 0x2C48, symBinAddr: 0x100006A40, symSize: 0x34 }
  - { offset: 0x15A0C, size: 0x8, addend: 0x0, symName: __ZNSt3__112basic_stringIcNS_11char_traitsIcEENS_9allocatorIcEEE15__set_long_sizeB8ne180100Em, symObjAddr: 0x2C7C, symBinAddr: 0x100006A74, symSize: 0x38 }
  - { offset: 0x15A41, size: 0x8, addend: 0x0, symName: __ZNSt3__112basic_stringIcNS_11char_traitsIcEENS_9allocatorIcEEE18__get_long_pointerB8ne180100Ev, symObjAddr: 0x2CB4, symBinAddr: 0x100006AAC, symSize: 0x28 }
  - { offset: 0x15A67, size: 0x8, addend: 0x0, symName: __ZNSt3__112basic_stringIcNS_11char_traitsIcEENS_9allocatorIcEEE19__get_short_pointerB8ne180100Ev, symObjAddr: 0x2CDC, symBinAddr: 0x100006AD4, symSize: 0x28 }
  - { offset: 0x15A8D, size: 0x8, addend: 0x0, symName: __ZNSt3__114pointer_traitsIPcE10pointer_toB8ne180100ERc, symObjAddr: 0x2D04, symBinAddr: 0x100006AFC, symSize: 0x14 }
  - { offset: 0x15AB0, size: 0x8, addend: 0x0, symName: __ZNSt3__112basic_stringIcNS_11char_traitsIcEENS_9allocatorIcEEE16__set_short_sizeB8ne180100Em, symObjAddr: 0x2D18, symBinAddr: 0x100006B10, symSize: 0x78 }
  - { offset: 0x15AE5, size: 0x8, addend: 0x0, symName: __ZNSt3__117__compressed_pairINS_12basic_stringIcNS_11char_traitsIcEENS_9allocatorIcEEE5__repES5_E6secondB8ne180100Ev, symObjAddr: 0x2D90, symBinAddr: 0x100006B88, symSize: 0x24 }
  - { offset: 0x15B0B, size: 0x8, addend: 0x0, symName: __ZNSt3__122__compressed_pair_elemINS_9allocatorIcEELi1ELb1EE5__getB8ne180100Ev, symObjAddr: 0x2DB4, symBinAddr: 0x100006BAC, symSize: 0x14 }
  - { offset: 0x15B31, size: 0x8, addend: 0x0, symName: __ZNSt3__112basic_stringIcNS_11char_traitsIcEENS_9allocatorIcEEEC2B8ne180100IPKcLi0EEET_S9_RKS4_, symObjAddr: 0x2DC8, symBinAddr: 0x100006BC0, symSize: 0x50 }
  - { offset: 0x15B97, size: 0x8, addend: 0x0, symName: __ZNSt3__117__compressed_pairINS_12basic_stringIcNS_11char_traitsIcEENS_9allocatorIcEEE5__repES5_EC1B8ne180100INS_18__default_init_tagERKS5_EEOT_OT0_, symObjAddr: 0x2E18, symBinAddr: 0x100006C10, symSize: 0x3C }
  - { offset: 0x15BEF, size: 0x8, addend: 0x0, symName: __ZNSt3__112basic_stringIcNS_11char_traitsIcEENS_9allocatorIcEEE6__initIPKcLi0EEEvT_S9_, symObjAddr: 0x2E54, symBinAddr: 0x100006C4C, symSize: 0x54 }
  - { offset: 0x15C53, size: 0x8, addend: 0x0, symName: __ZNSt3__117__compressed_pairINS_12basic_stringIcNS_11char_traitsIcEENS_9allocatorIcEEE5__repES5_EC2B8ne180100INS_18__default_init_tagERKS5_EEOT_OT0_, symObjAddr: 0x2EA8, symBinAddr: 0x100006CA0, symSize: 0x40 }
  - { offset: 0x15CAB, size: 0x8, addend: 0x0, symName: __ZNSt3__122__compressed_pair_elemINS_12basic_stringIcNS_11char_traitsIcEENS_9allocatorIcEEE5__repELi0ELb0EEC2B8ne180100ENS_18__default_init_tagE, symObjAddr: 0x2EE8, symBinAddr: 0x100006CE0, symSize: 0x14 }
  - { offset: 0x15CDF, size: 0x8, addend: 0x0, symName: __ZNSt3__122__compressed_pair_elemINS_9allocatorIcEELi1ELb1EEC2B8ne180100IRKS2_vEEOT_, symObjAddr: 0x2EFC, symBinAddr: 0x100006CF4, symSize: 0x18 }
  - { offset: 0x15D21, size: 0x8, addend: 0x0, symName: __ZNSt3__112basic_stringIcNS_11char_traitsIcEENS_9allocatorIcEEE16__init_with_sizeB8ne180100IPKcS8_EEvT_T0_m, symObjAddr: 0x2F14, symBinAddr: 0x100006D0C, symSize: 0x150 }
  - { offset: 0x15DB4, size: 0x8, addend: 0x0, symName: __ZNKSt3__112basic_stringIcNS_11char_traitsIcEENS_9allocatorIcEEE8max_sizeB8ne180100Ev, symObjAddr: 0x3064, symBinAddr: 0x100006E5C, symSize: 0xAC }
  - { offset: 0x15E06, size: 0x8, addend: 0x0, symName: __ZNKSt3__112basic_stringIcNS_11char_traitsIcEENS_9allocatorIcEEE20__throw_length_errorB8ne180100Ev, symObjAddr: 0x3110, symBinAddr: 0x100006F08, symSize: 0x1C }
  - { offset: 0x15E2C, size: 0x8, addend: 0x0, symName: __ZNSt3__112basic_stringIcNS_11char_traitsIcEENS_9allocatorIcEEE13__fits_in_ssoB8ne180100Em, symObjAddr: 0x312C, symBinAddr: 0x100006F24, symSize: 0x20 }
  - { offset: 0x15E50, size: 0x8, addend: 0x0, symName: __ZNSt3__112basic_stringIcNS_11char_traitsIcEENS_9allocatorIcEEE11__recommendB8ne180100Em, symObjAddr: 0x318C, symBinAddr: 0x100006F84, symSize: 0x84 }
  - { offset: 0x15E83, size: 0x8, addend: 0x0, symName: __ZNSt3__112basic_stringIcNS_11char_traitsIcEENS_9allocatorIcEEE16__begin_lifetimeB8ne180100EPcm, symObjAddr: 0x3210, symBinAddr: 0x100007008, symSize: 0x14 }
  - { offset: 0x15EB6, size: 0x8, addend: 0x0, symName: __ZNSt3__112basic_stringIcNS_11char_traitsIcEENS_9allocatorIcEEE18__set_long_pointerB8ne180100EPc, symObjAddr: 0x3224, symBinAddr: 0x10000701C, symSize: 0x38 }
  - { offset: 0x15EEB, size: 0x8, addend: 0x0, symName: __ZNSt3__112basic_stringIcNS_11char_traitsIcEENS_9allocatorIcEEE14__set_long_capB8ne180100Em, symObjAddr: 0x325C, symBinAddr: 0x100007054, symSize: 0x70 }
  - { offset: 0x15F2A, size: 0x8, addend: 0x0, symName: __ZNSt3__116allocator_traitsINS_9allocatorIcEEE8max_sizeB8ne180100IS2_vEEmRKS2_, symObjAddr: 0x32CC, symBinAddr: 0x1000070C4, symSize: 0x24 }
  - { offset: 0x15F58, size: 0x8, addend: 0x0, symName: __ZNKSt3__112basic_stringIcNS_11char_traitsIcEENS_9allocatorIcEEE7__allocB8ne180100Ev, symObjAddr: 0x32F0, symBinAddr: 0x1000070E8, symSize: 0x24 }
  - { offset: 0x15F7E, size: 0x8, addend: 0x0, symName: __ZNSt3__114numeric_limitsImE3maxB8ne180100Ev, symObjAddr: 0x3314, symBinAddr: 0x10000710C, symSize: 0x14 }
  - { offset: 0x15F92, size: 0x8, addend: 0x0, symName: __ZNKSt3__19allocatorIcE8max_sizeB8ne180100Ev, symObjAddr: 0x3328, symBinAddr: 0x100007120, symSize: 0x14 }
  - { offset: 0x15FB8, size: 0x8, addend: 0x0, symName: __ZNKSt3__117__compressed_pairINS_12basic_stringIcNS_11char_traitsIcEENS_9allocatorIcEEE5__repES5_E6secondB8ne180100Ev, symObjAddr: 0x333C, symBinAddr: 0x100007134, symSize: 0x24 }
  - { offset: 0x15FDE, size: 0x8, addend: 0x0, symName: __ZNKSt3__122__compressed_pair_elemINS_9allocatorIcEELi1ELb1EE5__getB8ne180100Ev, symObjAddr: 0x3360, symBinAddr: 0x100007158, symSize: 0x14 }
  - { offset: 0x16004, size: 0x8, addend: 0x0, symName: __ZNSt3__123__libcpp_numeric_limitsImLb1EE3maxB8ne180100Ev, symObjAddr: 0x3374, symBinAddr: 0x10000716C, symSize: 0x8 }
  - { offset: 0x16018, size: 0x8, addend: 0x0, symName: __ZNSt12length_errorC1B8ne180100EPKc, symObjAddr: 0x33E0, symBinAddr: 0x1000071D8, symSize: 0x34 }
  - { offset: 0x16050, size: 0x8, addend: 0x0, symName: __ZNSt12length_errorC2B8ne180100EPKc, symObjAddr: 0x3414, symBinAddr: 0x10000720C, symSize: 0x44 }
  - { offset: 0x16088, size: 0x8, addend: 0x0, symName: __ZNSt3__19allocatorIcE8allocateB8ne180100Em, symObjAddr: 0x3458, symBinAddr: 0x100007250, symSize: 0x58 }
  - { offset: 0x160BC, size: 0x8, addend: 0x0, symName: __ZNSt3__112basic_stringIcNS_11char_traitsIcEENS_9allocatorIcEEE10__align_itB8ne180100ILm8EEEmm, symObjAddr: 0x35B4, symBinAddr: 0x1000073AC, symSize: 0x1C }
  - { offset: 0x160EA, size: 0x8, addend: 0x0, symName: __ZNKSt3__112basic_stringIcNS_11char_traitsIcEENS_9allocatorIcEEE13__get_pointerB8ne180100Ev, symObjAddr: 0x35E4, symBinAddr: 0x1000073DC, symSize: 0x54 }
  - { offset: 0x16110, size: 0x8, addend: 0x0, symName: __ZNKSt3__112basic_stringIcNS_11char_traitsIcEENS_9allocatorIcEEE18__get_long_pointerB8ne180100Ev, symObjAddr: 0x3638, symBinAddr: 0x100007430, symSize: 0x28 }
  - { offset: 0x16136, size: 0x8, addend: 0x0, symName: __ZNKSt3__112basic_stringIcNS_11char_traitsIcEENS_9allocatorIcEEE19__get_short_pointerB8ne180100Ev, symObjAddr: 0x3660, symBinAddr: 0x100007458, symSize: 0x28 }
  - { offset: 0x1615C, size: 0x8, addend: 0x0, symName: __ZNSt3__114pointer_traitsIPKcE10pointer_toB8ne180100ERS1_, symObjAddr: 0x3688, symBinAddr: 0x100007480, symSize: 0x14 }
  - { offset: 0x1617F, size: 0x8, addend: 0x0, symName: __ZNSt3__112basic_stringIcNS_11char_traitsIcEENS_9allocatorIcEEEC2B8ne180100ILi0EEEPKc, symObjAddr: 0x369C, symBinAddr: 0x100007494, symSize: 0x58 }
  - { offset: 0x161BE, size: 0x8, addend: 0x0, symName: __ZNSt3__117__compressed_pairINS_12basic_stringIcNS_11char_traitsIcEENS_9allocatorIcEEE5__repES5_EC1B8ne180100INS_18__default_init_tagESA_EEOT_OT0_, symObjAddr: 0x36F4, symBinAddr: 0x1000074EC, symSize: 0x3C }
  - { offset: 0x16216, size: 0x8, addend: 0x0, symName: __ZNSt3__111char_traitsIcE6lengthB8ne180100EPKc, symObjAddr: 0x3730, symBinAddr: 0x100007528, symSize: 0x34 }
  - { offset: 0x16239, size: 0x8, addend: 0x0, symName: __ZNSt3__117__compressed_pairINS_12basic_stringIcNS_11char_traitsIcEENS_9allocatorIcEEE5__repES5_EC2B8ne180100INS_18__default_init_tagESA_EEOT_OT0_, symObjAddr: 0x3764, symBinAddr: 0x10000755C, symSize: 0x3C }
  - { offset: 0x162AF, size: 0x8, addend: 0x0, symName: __ZNKSt3__113basic_ostreamIcNS_11char_traitsIcEEE6sentrycvbB8ne180100Ev, symObjAddr: 0x39B0, symBinAddr: 0x1000077A8, symSize: 0x1C }
  - { offset: 0x162D5, size: 0x8, addend: 0x0, symName: __ZNSt3__119ostreambuf_iteratorIcNS_11char_traitsIcEEEC1B8ne180100ERNS_13basic_ostreamIcS2_EE, symObjAddr: 0x3C0C, symBinAddr: 0x100007A04, symSize: 0x34 }
  - { offset: 0x1630D, size: 0x8, addend: 0x0, symName: __ZNKSt3__18ios_base5flagsB8ne180100Ev, symObjAddr: 0x3C40, symBinAddr: 0x100007A38, symSize: 0x18 }
  - { offset: 0x16335, size: 0x8, addend: 0x0, symName: __ZNKSt3__19basic_iosIcNS_11char_traitsIcEEE4fillB8ne180100Ev, symObjAddr: 0x3C58, symBinAddr: 0x100007A50, symSize: 0x64 }
  - { offset: 0x1635D, size: 0x8, addend: 0x0, symName: __ZNKSt3__119ostreambuf_iteratorIcNS_11char_traitsIcEEE6failedB8ne180100Ev, symObjAddr: 0x3CBC, symBinAddr: 0x100007AB4, symSize: 0x24 }
  - { offset: 0x16383, size: 0x8, addend: 0x0, symName: __ZNSt3__19basic_iosIcNS_11char_traitsIcEEE8setstateB8ne180100Ej, symObjAddr: 0x3CE0, symBinAddr: 0x100007AD8, symSize: 0x2C }
  - { offset: 0x163B8, size: 0x8, addend: 0x0, symName: __ZNKSt3__18ios_base5widthB8ne180100Ev, symObjAddr: 0x3D0C, symBinAddr: 0x100007B04, symSize: 0x18 }
  - { offset: 0x163E0, size: 0x8, addend: 0x0, symName: __ZNSt3__115basic_streambufIcNS_11char_traitsIcEEE5sputnB8ne180100EPKcl, symObjAddr: 0x3D24, symBinAddr: 0x100007B1C, symSize: 0x3C }
  - { offset: 0x16422, size: 0x8, addend: 0x0, symName: __ZNSt3__112basic_stringIcNS_11char_traitsIcEENS_9allocatorIcEEEC1B8ne180100Emc, symObjAddr: 0x3D60, symBinAddr: 0x100007B58, symSize: 0x3C }
  - { offset: 0x1646A, size: 0x8, addend: 0x0, symName: __ZNSt3__112basic_stringIcNS_11char_traitsIcEENS_9allocatorIcEEE4dataB8ne180100Ev, symObjAddr: 0x3D9C, symBinAddr: 0x100007B94, symSize: 0x28 }
  - { offset: 0x16490, size: 0x8, addend: 0x0, symName: __ZNSt3__18ios_base5widthB8ne180100El, symObjAddr: 0x3DC4, symBinAddr: 0x100007BBC, symSize: 0x2C }
  - { offset: 0x164D6, size: 0x8, addend: 0x0, symName: __ZNSt3__112basic_stringIcNS_11char_traitsIcEENS_9allocatorIcEEEC2B8ne180100Emc, symObjAddr: 0x3DF0, symBinAddr: 0x100007BE8, symSize: 0x4C }
  - { offset: 0x1651E, size: 0x8, addend: 0x0, symName: __ZNSt3__119ostreambuf_iteratorIcNS_11char_traitsIcEEEC2B8ne180100ERNS_13basic_ostreamIcS2_EE, symObjAddr: 0x3E50, symBinAddr: 0x100007C48, symSize: 0x54 }
  - { offset: 0x16556, size: 0x8, addend: 0x0, symName: __ZNKSt3__19basic_iosIcNS_11char_traitsIcEEE5rdbufB8ne180100Ev, symObjAddr: 0x3EA4, symBinAddr: 0x100007C9C, symSize: 0x24 }
  - { offset: 0x1657E, size: 0x8, addend: 0x0, symName: __ZNKSt3__18ios_base5rdbufB8ne180100Ev, symObjAddr: 0x3EC8, symBinAddr: 0x100007CC0, symSize: 0x18 }
  - { offset: 0x165A4, size: 0x8, addend: 0x0, symName: __ZNSt3__111char_traitsIcE11eq_int_typeB8ne180100Eii, symObjAddr: 0x3EE0, symBinAddr: 0x100007CD8, symSize: 0x28 }
  - { offset: 0x165D7, size: 0x8, addend: 0x0, symName: __ZNSt3__111char_traitsIcE3eofB8ne180100Ev, symObjAddr: 0x3F08, symBinAddr: 0x100007D00, symSize: 0x8 }
  - { offset: 0x165EB, size: 0x8, addend: 0x0, symName: __ZNKSt3__19basic_iosIcNS_11char_traitsIcEEE5widenB8ne180100Ec, symObjAddr: 0x3F10, symBinAddr: 0x100007D08, symSize: 0x84 }
  - { offset: 0x16664, size: 0x8, addend: 0x0, symName: __ZNKSt3__15ctypeIcE5widenB8ne180100Ec, symObjAddr: 0x3FC0, symBinAddr: 0x100007DB8, symSize: 0x38 }
  - { offset: 0x16699, size: 0x8, addend: 0x0, symName: __ZNSt3__18ios_base8setstateB8ne180100Ej, symObjAddr: 0x3FF8, symBinAddr: 0x100007DF0, symSize: 0x34 }
  - { offset: 0x166D0, size: 0x8, addend: 0x0, symName: __ZNSt3__13mapINS_12basic_stringIcNS_11char_traitsIcEENS_9allocatorIcEEEEmNS_4lessIS6_EENS4_INS_4pairIKS6_mEEEEEC2B8ne180100Ev, symObjAddr: 0x402C, symBinAddr: 0x100007E24, symSize: 0x40 }
  - { offset: 0x166FA, size: 0x8, addend: 0x0, symName: __ZNSt3__119__map_value_compareINS_12basic_stringIcNS_11char_traitsIcEENS_9allocatorIcEEEENS_12__value_typeIS6_mEENS_4lessIS6_EELb1EEC1B8ne180100ESA_, symObjAddr: 0x406C, symBinAddr: 0x100007E64, symSize: 0x2C }
  - { offset: 0x16733, size: 0x8, addend: 0x0, symName: __ZNSt3__16__treeINS_12__value_typeINS_12basic_stringIcNS_11char_traitsIcEENS_9allocatorIcEEEEmEENS_19__map_value_compareIS7_S8_NS_4lessIS7_EELb1EEENS5_IS8_EEEC1ERKSC_, symObjAddr: 0x4098, symBinAddr: 0x100007E90, symSize: 0x34 }
  - { offset: 0x1676E, size: 0x8, addend: 0x0, symName: __ZNSt3__119__map_value_compareINS_12basic_stringIcNS_11char_traitsIcEENS_9allocatorIcEEEENS_12__value_typeIS6_mEENS_4lessIS6_EELb1EEC2B8ne180100ESA_, symObjAddr: 0x40CC, symBinAddr: 0x100007EC4, symSize: 0x14 }
  - { offset: 0x167A7, size: 0x8, addend: 0x0, symName: __ZNSt3__16__treeINS_12__value_typeINS_12basic_stringIcNS_11char_traitsIcEENS_9allocatorIcEEEEmEENS_19__map_value_compareIS7_S8_NS_4lessIS7_EELb1EEENS5_IS8_EEEC2ERKSC_, symObjAddr: 0x40E0, symBinAddr: 0x100007ED8, symSize: 0x7C }
  - { offset: 0x167E2, size: 0x8, addend: 0x0, symName: __ZNSt3__117__compressed_pairINS_15__tree_end_nodeIPNS_16__tree_node_baseIPvEEEENS_9allocatorINS_11__tree_nodeINS_12__value_typeINS_12basic_stringIcNS_11char_traitsIcEENS7_IcEEEEmEES3_EEEEEC1B8ne180100ILb1EvEEv, symObjAddr: 0x415C, symBinAddr: 0x100007F54, symSize: 0x2C }
  - { offset: 0x1681D, size: 0x8, addend: 0x0, symName: __ZNSt3__117__compressed_pairImNS_19__map_value_compareINS_12basic_stringIcNS_11char_traitsIcEENS_9allocatorIcEEEENS_12__value_typeIS7_mEENS_4lessIS7_EELb1EEEEC1B8ne180100IiRKSC_EEOT_OT0_, symObjAddr: 0x4188, symBinAddr: 0x100007F80, symSize: 0x3C }
  - { offset: 0x16875, size: 0x8, addend: 0x0, symName: __ZNSt3__16__treeINS_12__value_typeINS_12basic_stringIcNS_11char_traitsIcEENS_9allocatorIcEEEEmEENS_19__map_value_compareIS7_S8_NS_4lessIS7_EELb1EEENS5_IS8_EEE10__end_nodeB8ne180100Ev, symObjAddr: 0x41C4, symBinAddr: 0x100007FBC, symSize: 0x2C }
  - { offset: 0x1689B, size: 0x8, addend: 0x0, symName: __ZNSt3__16__treeINS_12__value_typeINS_12basic_stringIcNS_11char_traitsIcEENS_9allocatorIcEEEEmEENS_19__map_value_compareIS7_S8_NS_4lessIS7_EELb1EEENS5_IS8_EEE12__begin_nodeB8ne180100Ev, symObjAddr: 0x41F0, symBinAddr: 0x100007FE8, symSize: 0x14 }
  - { offset: 0x168C1, size: 0x8, addend: 0x0, symName: __ZNSt3__117__compressed_pairINS_15__tree_end_nodeIPNS_16__tree_node_baseIPvEEEENS_9allocatorINS_11__tree_nodeINS_12__value_typeINS_12basic_stringIcNS_11char_traitsIcEENS7_IcEEEEmEES3_EEEEEC2B8ne180100ILb1EvEEv, symObjAddr: 0x4204, symBinAddr: 0x100007FFC, symSize: 0x34 }
  - { offset: 0x168F6, size: 0x8, addend: 0x0, symName: __ZNSt3__122__compressed_pair_elemINS_15__tree_end_nodeIPNS_16__tree_node_baseIPvEEEELi0ELb0EEC2B8ne180100ENS_16__value_init_tagE, symObjAddr: 0x4238, symBinAddr: 0x100008030, symSize: 0x2C }
  - { offset: 0x1692A, size: 0x8, addend: 0x0, symName: __ZNSt3__122__compressed_pair_elemINS_9allocatorINS_11__tree_nodeINS_12__value_typeINS_12basic_stringIcNS_11char_traitsIcEENS1_IcEEEEmEEPvEEEELi1ELb1EEC2B8ne180100ENS_16__value_init_tagE, symObjAddr: 0x4264, symBinAddr: 0x10000805C, symSize: 0x2C }
  - { offset: 0x1695E, size: 0x8, addend: 0x0, symName: __ZNSt3__115__tree_end_nodeIPNS_16__tree_node_baseIPvEEEC1B8ne180100Ev, symObjAddr: 0x4290, symBinAddr: 0x100008088, symSize: 0x2C }
  - { offset: 0x16988, size: 0x8, addend: 0x0, symName: __ZNSt3__115__tree_end_nodeIPNS_16__tree_node_baseIPvEEEC2B8ne180100Ev, symObjAddr: 0x42BC, symBinAddr: 0x1000080B4, symSize: 0x18 }
  - { offset: 0x169B2, size: 0x8, addend: 0x0, symName: __ZNSt3__19allocatorINS_11__tree_nodeINS_12__value_typeINS_12basic_stringIcNS_11char_traitsIcEENS0_IcEEEEmEEPvEEEC2B8ne180100Ev, symObjAddr: 0x42D4, symBinAddr: 0x1000080CC, symSize: 0x2C }
  - { offset: 0x169DC, size: 0x8, addend: 0x0, symName: __ZNSt3__116__non_trivial_ifILb1ENS_9allocatorINS_11__tree_nodeINS_12__value_typeINS_12basic_stringIcNS_11char_traitsIcEENS1_IcEEEEmEEPvEEEEEC2B8ne180100Ev, symObjAddr: 0x4300, symBinAddr: 0x1000080F8, symSize: 0x14 }
  - { offset: 0x16A06, size: 0x8, addend: 0x0, symName: __ZNSt3__117__compressed_pairImNS_19__map_value_compareINS_12basic_stringIcNS_11char_traitsIcEENS_9allocatorIcEEEENS_12__value_typeIS7_mEENS_4lessIS7_EELb1EEEEC2B8ne180100IiRKSC_EEOT_OT0_, symObjAddr: 0x4314, symBinAddr: 0x10000810C, symSize: 0x44 }
  - { offset: 0x16A5E, size: 0x8, addend: 0x0, symName: __ZNSt3__122__compressed_pair_elemImLi0ELb0EEC2B8ne180100IivEEOT_, symObjAddr: 0x4358, symBinAddr: 0x100008150, symSize: 0x24 }
  - { offset: 0x16AA0, size: 0x8, addend: 0x0, symName: __ZNSt3__122__compressed_pair_elemINS_19__map_value_compareINS_12basic_stringIcNS_11char_traitsIcEENS_9allocatorIcEEEENS_12__value_typeIS7_mEENS_4lessIS7_EELb1EEELi1ELb1EEC2B8ne180100IRKSC_vEEOT_, symObjAddr: 0x437C, symBinAddr: 0x100008174, symSize: 0x18 }
  - { offset: 0x16AE2, size: 0x8, addend: 0x0, symName: __ZNSt3__114pointer_traitsIPNS_15__tree_end_nodeIPNS_16__tree_node_baseIPvEEEEE10pointer_toB8ne180100ERS6_, symObjAddr: 0x4394, symBinAddr: 0x10000818C, symSize: 0x14 }
  - { offset: 0x16B05, size: 0x8, addend: 0x0, symName: __ZNSt3__117__compressed_pairINS_15__tree_end_nodeIPNS_16__tree_node_baseIPvEEEENS_9allocatorINS_11__tree_nodeINS_12__value_typeINS_12basic_stringIcNS_11char_traitsIcEENS7_IcEEEEmEES3_EEEEE5firstB8ne180100Ev, symObjAddr: 0x43A8, symBinAddr: 0x1000081A0, symSize: 0x24 }
  - { offset: 0x16B2B, size: 0x8, addend: 0x0, symName: __ZNSt3__122__compressed_pair_elemINS_15__tree_end_nodeIPNS_16__tree_node_baseIPvEEEELi0ELb0EE5__getB8ne180100Ev, symObjAddr: 0x43CC, symBinAddr: 0x1000081C4, symSize: 0x14 }
  - { offset: 0x16B51, size: 0x8, addend: 0x0, symName: __ZNSt3__13mapINS_12basic_stringIcNS_11char_traitsIcEENS_9allocatorIcEEEEmNS_4lessIS6_EENS4_INS_4pairIKS6_mEEEEED2B8ne180100Ev, symObjAddr: 0x43E0, symBinAddr: 0x1000081D8, symSize: 0x2C }
  - { offset: 0x16B7B, size: 0x8, addend: 0x0, symName: __ZNSt3__16__treeINS_12__value_typeINS_12basic_stringIcNS_11char_traitsIcEENS_9allocatorIcEEEEmEENS_19__map_value_compareIS7_S8_NS_4lessIS7_EELb1EEENS5_IS8_EEED1Ev, symObjAddr: 0x440C, symBinAddr: 0x100008204, symSize: 0x2C }
  - { offset: 0x16BA7, size: 0x8, addend: 0x0, symName: __ZNSt3__16__treeINS_12__value_typeINS_12basic_stringIcNS_11char_traitsIcEENS_9allocatorIcEEEEmEENS_19__map_value_compareIS7_S8_NS_4lessIS7_EELb1EEENS5_IS8_EEED2Ev, symObjAddr: 0x4438, symBinAddr: 0x100008230, symSize: 0x38 }
  - { offset: 0x16BD3, size: 0x8, addend: 0x0, symName: __ZNSt3__16__treeINS_12__value_typeINS_12basic_stringIcNS_11char_traitsIcEENS_9allocatorIcEEEEmEENS_19__map_value_compareIS7_S8_NS_4lessIS7_EELb1EEENS5_IS8_EEE7destroyEPNS_11__tree_nodeIS8_PvEE, symObjAddr: 0x4470, symBinAddr: 0x100008268, symSize: 0xAC }
  - { offset: 0x16C1F, size: 0x8, addend: 0x0, symName: __ZNKSt3__16__treeINS_12__value_typeINS_12basic_stringIcNS_11char_traitsIcEENS_9allocatorIcEEEEmEENS_19__map_value_compareIS7_S8_NS_4lessIS7_EELb1EEENS5_IS8_EEE6__rootB8ne180100Ev, symObjAddr: 0x451C, symBinAddr: 0x100008314, symSize: 0x28 }
  - { offset: 0x16C45, size: 0x8, addend: 0x0, symName: __ZNSt3__16__treeINS_12__value_typeINS_12basic_stringIcNS_11char_traitsIcEENS_9allocatorIcEEEEmEENS_19__map_value_compareIS7_S8_NS_4lessIS7_EELb1EEENS5_IS8_EEE12__node_allocB8ne180100Ev, symObjAddr: 0x4544, symBinAddr: 0x10000833C, symSize: 0x28 }
  - { offset: 0x16C6B, size: 0x8, addend: 0x0, symName: __ZNSt3__116allocator_traitsINS_9allocatorINS_11__tree_nodeINS_12__value_typeINS_12basic_stringIcNS_11char_traitsIcEENS1_IcEEEEmEEPvEEEEE7destroyB8ne180100INS_4pairIKS8_mEEvvEEvRSC_PT_, symObjAddr: 0x456C, symBinAddr: 0x100008364, symSize: 0x28 }
  - { offset: 0x16CA6, size: 0x8, addend: 0x0, symName: __ZNSt3__122__tree_key_value_typesINS_12__value_typeINS_12basic_stringIcNS_11char_traitsIcEENS_9allocatorIcEEEEmEEE9__get_ptrB8ne180100ERS8_, symObjAddr: 0x4594, symBinAddr: 0x10000838C, symSize: 0x24 }
  - { offset: 0x16CCA, size: 0x8, addend: 0x0, symName: __ZNSt3__116allocator_traitsINS_9allocatorINS_11__tree_nodeINS_12__value_typeINS_12basic_stringIcNS_11char_traitsIcEENS1_IcEEEEmEEPvEEEEE10deallocateB8ne180100ERSC_PSB_m, symObjAddr: 0x45B8, symBinAddr: 0x1000083B0, symSize: 0x34 }
  - { offset: 0x16D0C, size: 0x8, addend: 0x0, symName: __ZNSt3__117__compressed_pairINS_15__tree_end_nodeIPNS_16__tree_node_baseIPvEEEENS_9allocatorINS_11__tree_nodeINS_12__value_typeINS_12basic_stringIcNS_11char_traitsIcEENS7_IcEEEEmEES3_EEEEE6secondB8ne180100Ev, symObjAddr: 0x45EC, symBinAddr: 0x1000083E4, symSize: 0x24 }
  - { offset: 0x16D32, size: 0x8, addend: 0x0, symName: __ZNSt3__122__compressed_pair_elemINS_9allocatorINS_11__tree_nodeINS_12__value_typeINS_12basic_stringIcNS_11char_traitsIcEENS1_IcEEEEmEEPvEEEELi1ELb1EE5__getB8ne180100Ev, symObjAddr: 0x4610, symBinAddr: 0x100008408, symSize: 0x14 }
  - { offset: 0x16D58, size: 0x8, addend: 0x0, symName: __ZNSt3__14pairIKNS_12basic_stringIcNS_11char_traitsIcEENS_9allocatorIcEEEEmED1Ev, symObjAddr: 0x4648, symBinAddr: 0x100008440, symSize: 0x2C }
  - { offset: 0x16D84, size: 0x8, addend: 0x0, symName: __ZNSt3__14pairIKNS_12basic_stringIcNS_11char_traitsIcEENS_9allocatorIcEEEEmED2Ev, symObjAddr: 0x4674, symBinAddr: 0x10000846C, symSize: 0x2C }
  - { offset: 0x16DB0, size: 0x8, addend: 0x0, symName: __ZNSt3__112__value_typeINS_12basic_stringIcNS_11char_traitsIcEENS_9allocatorIcEEEEmE11__get_valueB8ne180100Ev, symObjAddr: 0x46A0, symBinAddr: 0x100008498, symSize: 0x24 }
  - { offset: 0x16DD6, size: 0x8, addend: 0x0, symName: __ZNSt3__19allocatorINS_11__tree_nodeINS_12__value_typeINS_12basic_stringIcNS_11char_traitsIcEENS0_IcEEEEmEEPvEEE10deallocateB8ne180100EPSA_m, symObjAddr: 0x46FC, symBinAddr: 0x1000084F4, symSize: 0x40 }
  - { offset: 0x16E18, size: 0x8, addend: 0x0, symName: __ZNKSt3__16__treeINS_12__value_typeINS_12basic_stringIcNS_11char_traitsIcEENS_9allocatorIcEEEEmEENS_19__map_value_compareIS7_S8_NS_4lessIS7_EELb1EEENS5_IS8_EEE10__end_nodeB8ne180100Ev, symObjAddr: 0x4844, symBinAddr: 0x10000863C, symSize: 0x2C }
  - { offset: 0x16E3E, size: 0x8, addend: 0x0, symName: __ZNKSt3__117__compressed_pairINS_15__tree_end_nodeIPNS_16__tree_node_baseIPvEEEENS_9allocatorINS_11__tree_nodeINS_12__value_typeINS_12basic_stringIcNS_11char_traitsIcEENS7_IcEEEEmEES3_EEEEE5firstB8ne180100Ev, symObjAddr: 0x4870, symBinAddr: 0x100008668, symSize: 0x24 }
  - { offset: 0x16E64, size: 0x8, addend: 0x0, symName: __ZNKSt3__122__compressed_pair_elemINS_15__tree_end_nodeIPNS_16__tree_node_baseIPvEEEELi0ELb0EE5__getB8ne180100Ev, symObjAddr: 0x4894, symBinAddr: 0x10000868C, symSize: 0x14 }
  - { offset: 0x16E8A, size: 0x8, addend: 0x0, symName: __ZNSt3__14__fs10filesystem28recursive_directory_iteratorC1B8ne180100ERKNS1_4pathENS1_17directory_optionsE, symObjAddr: 0x48A8, symBinAddr: 0x1000086A0, symSize: 0x40 }
  - { offset: 0x16ED0, size: 0x8, addend: 0x0, symName: __ZNSt3__14__fs10filesystem28recursive_directory_iteratorC1B8ne180100ERKS2_, symObjAddr: 0x4920, symBinAddr: 0x100008718, symSize: 0x34 }
  - { offset: 0x16F04, size: 0x8, addend: 0x0, symName: __ZNSt3__14__fs10filesystem28recursive_directory_iteratorD1B8ne180100Ev, symObjAddr: 0x4954, symBinAddr: 0x10000874C, symSize: 0x2C }
  - { offset: 0x16F2E, size: 0x8, addend: 0x0, symName: __ZNKSt3__14__fs10filesystem28recursive_directory_iteratordeB8ne180100Ev, symObjAddr: 0x49E8, symBinAddr: 0x1000087E0, symSize: 0x24 }
  - { offset: 0x16F54, size: 0x8, addend: 0x0, symName: __ZNKSt3__14__fs10filesystem15directory_entry4pathB8ne180100Ev, symObjAddr: 0x4A5C, symBinAddr: 0x100008854, symSize: 0x14 }
  - { offset: 0x16F7A, size: 0x8, addend: 0x0, symName: __ZNSt3__14__fs10filesystem28recursive_directory_iteratorppB8ne180100Ev, symObjAddr: 0x4A70, symBinAddr: 0x100008868, symSize: 0x28 }
  - { offset: 0x16FA0, size: 0x8, addend: 0x0, symName: __ZNKSt3__14__fs10filesystem4path8filenameB8ne180100Ev, symObjAddr: 0x4AE8, symBinAddr: 0x1000088E0, symSize: 0x60 }
  - { offset: 0x16FC6, size: 0x8, addend: 0x0, symName: __ZNKSt3__14__fs10filesystem4path6stringB8ne180100Ev, symObjAddr: 0x4B48, symBinAddr: 0x100008940, symSize: 0x38 }
  - { offset: 0x16FEC, size: 0x8, addend: 0x0, symName: __ZNSt3__112basic_stringIcNS_11char_traitsIcEENS_9allocatorIcEEEixB8ne180100Em, symObjAddr: 0x4B80, symBinAddr: 0x100008978, symSize: 0x48 }
  - { offset: 0x17021, size: 0x8, addend: 0x0, symName: __ZNKSt3__14__fs10filesystem4path9extensionB8ne180100Ev, symObjAddr: 0x4BC8, symBinAddr: 0x1000089C0, symSize: 0x60 }
  - { offset: 0x17047, size: 0x8, addend: 0x0, symName: __ZNSt3__13mapINS_12basic_stringIcNS_11char_traitsIcEENS_9allocatorIcEEEEmNS_4lessIS6_EENS4_INS_4pairIKS6_mEEEEEixERSA_, symObjAddr: 0x4C50, symBinAddr: 0x100008A48, symSize: 0x80 }
  - { offset: 0x1707E, size: 0x8, addend: 0x0, symName: __ZNSt3__14__fs10filesystem28recursive_directory_iteratorC1B8ne180100EOS2_, symObjAddr: 0x4CD0, symBinAddr: 0x100008AC8, symSize: 0x34 }
  - { offset: 0x170B2, size: 0x8, addend: 0x0, symName: __ZNSt3__14__fs10filesystem28recursive_directory_iteratorC2B8ne180100EOS2_, symObjAddr: 0x4D04, symBinAddr: 0x100008AFC, symSize: 0x44 }
  - { offset: 0x170E6, size: 0x8, addend: 0x0, symName: __ZNSt3__110shared_ptrINS_4__fs10filesystem28recursive_directory_iterator12__shared_impEEC1B8ne180100EOS5_, symObjAddr: 0x4D48, symBinAddr: 0x100008B40, symSize: 0x34 }
  - { offset: 0x1711F, size: 0x8, addend: 0x0, symName: __ZNSt3__110shared_ptrINS_4__fs10filesystem28recursive_directory_iterator12__shared_impEEC2B8ne180100EOS5_, symObjAddr: 0x4D7C, symBinAddr: 0x100008B74, symSize: 0x40 }
  - { offset: 0x17158, size: 0x8, addend: 0x0, symName: __ZNSt3__14__fs10filesystem28recursive_directory_iteratorC2B8ne180100ERKS2_, symObjAddr: 0x4DBC, symBinAddr: 0x100008BB4, symSize: 0x44 }
  - { offset: 0x1718C, size: 0x8, addend: 0x0, symName: __ZNSt3__110shared_ptrINS_4__fs10filesystem28recursive_directory_iterator12__shared_impEEC1B8ne180100ERKS5_, symObjAddr: 0x4E00, symBinAddr: 0x100008BF8, symSize: 0x34 }
  - { offset: 0x171C5, size: 0x8, addend: 0x0, symName: __ZNSt3__110shared_ptrINS_4__fs10filesystem28recursive_directory_iterator12__shared_impEEC2B8ne180100ERKS5_, symObjAddr: 0x4E34, symBinAddr: 0x100008C2C, symSize: 0x70 }
  - { offset: 0x171FE, size: 0x8, addend: 0x0, symName: __ZNSt3__119__shared_weak_count12__add_sharedB8ne180100Ev, symObjAddr: 0x4EA4, symBinAddr: 0x100008C9C, symSize: 0x24 }
  - { offset: 0x17224, size: 0x8, addend: 0x0, symName: __ZNSt3__114__shared_count12__add_sharedB8ne180100Ev, symObjAddr: 0x4EC8, symBinAddr: 0x100008CC0, symSize: 0x28 }
  - { offset: 0x1724A, size: 0x8, addend: 0x0, symName: __ZNSt3__14__fs10filesystem28recursive_directory_iteratorD2B8ne180100Ev, symObjAddr: 0x4F20, symBinAddr: 0x100008D18, symSize: 0x2C }
  - { offset: 0x17274, size: 0x8, addend: 0x0, symName: __ZNSt3__110shared_ptrINS_4__fs10filesystem28recursive_directory_iterator12__shared_impEED1B8ne180100Ev, symObjAddr: 0x4F4C, symBinAddr: 0x100008D44, symSize: 0x2C }
  - { offset: 0x1729E, size: 0x8, addend: 0x0, symName: __ZNSt3__110shared_ptrINS_4__fs10filesystem28recursive_directory_iterator12__shared_impEED2B8ne180100Ev, symObjAddr: 0x4F78, symBinAddr: 0x100008D70, symSize: 0x54 }
  - { offset: 0x172C8, size: 0x8, addend: 0x0, symName: __ZNSt3__119__shared_weak_count16__release_sharedB8ne180100Ev, symObjAddr: 0x4FCC, symBinAddr: 0x100008DC4, symSize: 0x3C }
  - { offset: 0x172EE, size: 0x8, addend: 0x0, symName: __ZNSt3__114__shared_count16__release_sharedB8ne180100Ev, symObjAddr: 0x5008, symBinAddr: 0x100008E00, symSize: 0x7C }
  - { offset: 0x17314, size: 0x8, addend: 0x0, symName: __ZNSt3__14__fs10filesystem28recursive_directory_iteratorC1B8ne180100Ev, symObjAddr: 0x50B4, symBinAddr: 0x100008EAC, symSize: 0x2C }
  - { offset: 0x1733E, size: 0x8, addend: 0x0, symName: __ZNSt3__14__fs10filesystem28recursive_directory_iteratorC2B8ne180100Ev, symObjAddr: 0x50E0, symBinAddr: 0x100008ED8, symSize: 0x30 }
  - { offset: 0x17368, size: 0x8, addend: 0x0, symName: __ZNSt3__110shared_ptrINS_4__fs10filesystem28recursive_directory_iterator12__shared_impEEC1B8ne180100Ev, symObjAddr: 0x5110, symBinAddr: 0x100008F08, symSize: 0x2C }
  - { offset: 0x17392, size: 0x8, addend: 0x0, symName: __ZNSt3__110shared_ptrINS_4__fs10filesystem28recursive_directory_iterator12__shared_impEEC2B8ne180100Ev, symObjAddr: 0x513C, symBinAddr: 0x100008F34, symSize: 0x1C }
  - { offset: 0x173BC, size: 0x8, addend: 0x0, symName: __ZNKSt3__110shared_ptrINS_4__fs10filesystem28recursive_directory_iterator12__shared_impEE3getB8ne180100Ev, symObjAddr: 0x51D0, symBinAddr: 0x100008FC8, symSize: 0x18 }
  - { offset: 0x173E2, size: 0x8, addend: 0x0, symName: __ZNSt3__112basic_stringIcNS_11char_traitsIcEENS_9allocatorIcEEEC1INS_17basic_string_viewIcS2_EELi0EEERKT_, symObjAddr: 0x5250, symBinAddr: 0x100009048, symSize: 0x34 }
  - { offset: 0x1742A, size: 0x8, addend: 0x0, symName: __ZNSt3__14__fs10filesystem4pathC1B8ne180100EONS_12basic_stringIcNS_11char_traitsIcEENS_9allocatorIcEEEENS2_6formatE, symObjAddr: 0x5284, symBinAddr: 0x10000907C, symSize: 0x3C }
  - { offset: 0x1746F, size: 0x8, addend: 0x0, symName: __ZNSt3__112basic_stringIcNS_11char_traitsIcEENS_9allocatorIcEEEC2INS_17basic_string_viewIcS2_EELi0EEERKT_, symObjAddr: 0x52C0, symBinAddr: 0x1000090B8, symSize: 0x70 }
  - { offset: 0x174D4, size: 0x8, addend: 0x0, symName: __ZNKSt3__117basic_string_viewIcNS_11char_traitsIcEEE4dataB8ne180100Ev, symObjAddr: 0x5330, symBinAddr: 0x100009128, symSize: 0x18 }
  - { offset: 0x174FA, size: 0x8, addend: 0x0, symName: __ZNKSt3__117basic_string_viewIcNS_11char_traitsIcEEE4sizeB8ne180100Ev, symObjAddr: 0x5348, symBinAddr: 0x100009140, symSize: 0x18 }
  - { offset: 0x17520, size: 0x8, addend: 0x0, symName: __ZNSt3__14__fs10filesystem4pathC2B8ne180100EONS_12basic_stringIcNS_11char_traitsIcEENS_9allocatorIcEEEENS2_6formatE, symObjAddr: 0x5360, symBinAddr: 0x100009158, symSize: 0x38 }
  - { offset: 0x1757A, size: 0x8, addend: 0x0, symName: __ZNSt3__16__treeINS_12__value_typeINS_12basic_stringIcNS_11char_traitsIcEENS_9allocatorIcEEEEmEENS_19__map_value_compareIS7_S8_NS_4lessIS7_EELb1EEENS5_IS8_EEE25__emplace_unique_key_argsIS7_JRKNS_21piecewise_construct_tENS_5tupleIJRKS7_EEENSJ_IJEEEEEENS_4pairINS_15__tree_iteratorIS8_PNS_11__tree_nodeIS8_PvEElEEbEERKT_DpOT0_, symObjAddr: 0x5398, symBinAddr: 0x100009190, symSize: 0x100 }
  - { offset: 0x17650, size: 0x8, addend: 0x0, symName: __ZNKSt3__115__tree_iteratorINS_12__value_typeINS_12basic_stringIcNS_11char_traitsIcEENS_9allocatorIcEEEEmEEPNS_11__tree_nodeIS8_PvEElEptB8ne180100Ev, symObjAddr: 0x54C8, symBinAddr: 0x1000092C0, symSize: 0x2C }
  - { offset: 0x17676, size: 0x8, addend: 0x0, symName: __ZNSt3__16__treeINS_12__value_typeINS_12basic_stringIcNS_11char_traitsIcEENS_9allocatorIcEEEEmEENS_19__map_value_compareIS7_S8_NS_4lessIS7_EELb1EEENS5_IS8_EEE12__find_equalIS7_EERPNS_16__tree_node_baseIPvEERPNS_15__tree_end_nodeISJ_EERKT_, symObjAddr: 0x54F4, symBinAddr: 0x1000092EC, symSize: 0x184 }
  - { offset: 0x176E3, size: 0x8, addend: 0x0, symName: __ZNSt3__16__treeINS_12__value_typeINS_12basic_stringIcNS_11char_traitsIcEENS_9allocatorIcEEEEmEENS_19__map_value_compareIS7_S8_NS_4lessIS7_EELb1EEENS5_IS8_EEE16__construct_nodeIJRKNS_21piecewise_construct_tENS_5tupleIJRKS7_EEENSJ_IJEEEEEENS_10unique_ptrINS_11__tree_nodeIS8_PvEENS_22__tree_node_destructorINS5_ISR_EEEEEEDpOT_, symObjAddr: 0x5678, symBinAddr: 0x100009470, symSize: 0x120 }
  - { offset: 0x1776C, size: 0x8, addend: 0x0, symName: __ZNSt3__16__treeINS_12__value_typeINS_12basic_stringIcNS_11char_traitsIcEENS_9allocatorIcEEEEmEENS_19__map_value_compareIS7_S8_NS_4lessIS7_EELb1EEENS5_IS8_EEE16__insert_node_atEPNS_15__tree_end_nodeIPNS_16__tree_node_baseIPvEEEERSJ_SJ_, symObjAddr: 0x5798, symBinAddr: 0x100009590, symSize: 0xCC }
  - { offset: 0x177C1, size: 0x8, addend: 0x0, symName: __ZNKSt3__110unique_ptrINS_11__tree_nodeINS_12__value_typeINS_12basic_stringIcNS_11char_traitsIcEENS_9allocatorIcEEEEmEEPvEENS_22__tree_node_destructorINS6_ISB_EEEEE3getB8ne180100Ev, symObjAddr: 0x5864, symBinAddr: 0x10000965C, symSize: 0x28 }
  - { offset: 0x177E7, size: 0x8, addend: 0x0, symName: __ZNSt3__110unique_ptrINS_11__tree_nodeINS_12__value_typeINS_12basic_stringIcNS_11char_traitsIcEENS_9allocatorIcEEEEmEEPvEENS_22__tree_node_destructorINS6_ISB_EEEEE7releaseB8ne180100Ev, symObjAddr: 0x588C, symBinAddr: 0x100009684, symSize: 0x44 }
  - { offset: 0x1781C, size: 0x8, addend: 0x0, symName: __ZNSt3__110unique_ptrINS_11__tree_nodeINS_12__value_typeINS_12basic_stringIcNS_11char_traitsIcEENS_9allocatorIcEEEEmEEPvEENS_22__tree_node_destructorINS6_ISB_EEEEED1B8ne180100Ev, symObjAddr: 0x58D0, symBinAddr: 0x1000096C8, symSize: 0x2C }
  - { offset: 0x17846, size: 0x8, addend: 0x0, symName: __ZNSt3__115__tree_iteratorINS_12__value_typeINS_12basic_stringIcNS_11char_traitsIcEENS_9allocatorIcEEEEmEEPNS_11__tree_nodeIS8_PvEElEC1B8ne180100ESC_, symObjAddr: 0x58FC, symBinAddr: 0x1000096F4, symSize: 0x34 }
  - { offset: 0x17885, size: 0x8, addend: 0x0, symName: __ZNSt3__14pairINS_15__tree_iteratorINS_12__value_typeINS_12basic_stringIcNS_11char_traitsIcEENS_9allocatorIcEEEEmEEPNS_11__tree_nodeIS9_PvEElEEbEC1B8ne180100ISE_RbLi0EEEOT_OT0_, symObjAddr: 0x5930, symBinAddr: 0x100009728, symSize: 0x3C }
  - { offset: 0x178E3, size: 0x8, addend: 0x0, symName: __ZNKSt3__16__treeINS_12__value_typeINS_12basic_stringIcNS_11char_traitsIcEENS_9allocatorIcEEEEmEENS_19__map_value_compareIS7_S8_NS_4lessIS7_EELb1EEENS5_IS8_EEE10__root_ptrB8ne180100Ev, symObjAddr: 0x596C, symBinAddr: 0x100009764, symSize: 0x24 }
  - { offset: 0x17909, size: 0x8, addend: 0x0, symName: __ZNSt3__16__treeINS_12__value_typeINS_12basic_stringIcNS_11char_traitsIcEENS_9allocatorIcEEEEmEENS_19__map_value_compareIS7_S8_NS_4lessIS7_EELb1EEENS5_IS8_EEE10value_compB8ne180100Ev, symObjAddr: 0x5990, symBinAddr: 0x100009788, symSize: 0x28 }
  - { offset: 0x1792F, size: 0x8, addend: 0x0, symName: __ZNKSt3__119__map_value_compareINS_12basic_stringIcNS_11char_traitsIcEENS_9allocatorIcEEEENS_12__value_typeIS6_mEENS_4lessIS6_EELb1EEclB8ne180100ERKS6_RKS8_, symObjAddr: 0x59B8, symBinAddr: 0x1000097B0, symSize: 0x50 }
  - { offset: 0x17973, size: 0x8, addend: 0x0, symName: __ZNKSt3__119__map_value_compareINS_12basic_stringIcNS_11char_traitsIcEENS_9allocatorIcEEEENS_12__value_typeIS6_mEENS_4lessIS6_EELb1EEclB8ne180100ERKS8_RKS6_, symObjAddr: 0x5A08, symBinAddr: 0x100009800, symSize: 0x48 }
  - { offset: 0x179B7, size: 0x8, addend: 0x0, symName: __ZNSt3__117__compressed_pairImNS_19__map_value_compareINS_12basic_stringIcNS_11char_traitsIcEENS_9allocatorIcEEEENS_12__value_typeIS7_mEENS_4lessIS7_EELb1EEEE6secondB8ne180100Ev, symObjAddr: 0x5A50, symBinAddr: 0x100009848, symSize: 0x24 }
  - { offset: 0x179DD, size: 0x8, addend: 0x0, symName: __ZNSt3__122__compressed_pair_elemINS_19__map_value_compareINS_12basic_stringIcNS_11char_traitsIcEENS_9allocatorIcEEEENS_12__value_typeIS7_mEENS_4lessIS7_EELb1EEELi1ELb1EE5__getB8ne180100Ev, symObjAddr: 0x5A74, symBinAddr: 0x10000986C, symSize: 0x14 }
  - { offset: 0x17A03, size: 0x8, addend: 0x0, symName: __ZNKSt3__14lessINS_12basic_stringIcNS_11char_traitsIcEENS_9allocatorIcEEEEEclB8ne180100ERKS6_S9_, symObjAddr: 0x5A88, symBinAddr: 0x100009880, symSize: 0x34 }
  - { offset: 0x17A47, size: 0x8, addend: 0x0, symName: __ZNKSt3__112__value_typeINS_12basic_stringIcNS_11char_traitsIcEENS_9allocatorIcEEEEmE11__get_valueB8ne180100Ev, symObjAddr: 0x5ABC, symBinAddr: 0x1000098B4, symSize: 0x24 }
  - { offset: 0x17A6D, size: 0x8, addend: 0x0, symName: __ZNKSt3__112basic_stringIcNS_11char_traitsIcEENS_9allocatorIcEEE7compareB8ne180100ERKS5_, symObjAddr: 0x5B18, symBinAddr: 0x100009910, symSize: 0x4C }
  - { offset: 0x17AA4, size: 0x8, addend: 0x0, symName: __ZNKSt3__112basic_stringIcNS_11char_traitsIcEENS_9allocatorIcEEE7compareINS_17basic_string_viewIcS2_EELi0EEEiRKT_, symObjAddr: 0x5B64, symBinAddr: 0x10000995C, symSize: 0x12C }
  - { offset: 0x17B27, size: 0x8, addend: 0x0, symName: __ZNKSt3__112basic_stringIcNS_11char_traitsIcEENS_9allocatorIcEEEcvNS_17basic_string_viewIcS2_EEB8ne180100Ev, symObjAddr: 0x5C90, symBinAddr: 0x100009A88, symSize: 0x50 }
  - { offset: 0x17B4D, size: 0x8, addend: 0x0, symName: __ZNSt3__111char_traitsIcE7compareB8ne180100EPKcS3_m, symObjAddr: 0x5CE0, symBinAddr: 0x100009AD8, symSize: 0x34 }
  - { offset: 0x17B8C, size: 0x8, addend: 0x0, symName: __ZNKSt3__16__lessIvvEclB8ne180100ImmEEbRKT_RKT0_, symObjAddr: 0x5D94, symBinAddr: 0x100009B8C, symSize: 0x34 }
  - { offset: 0x17BE0, size: 0x8, addend: 0x0, symName: __ZNSt3__117basic_string_viewIcNS_11char_traitsIcEEEC1B8ne180100EPKcm, symObjAddr: 0x5DC8, symBinAddr: 0x100009BC0, symSize: 0x3C }
  - { offset: 0x17C28, size: 0x8, addend: 0x0, symName: __ZNSt3__117basic_string_viewIcNS_11char_traitsIcEEEC2B8ne180100EPKcm, symObjAddr: 0x5E04, symBinAddr: 0x100009BFC, symSize: 0x2C }
  - { offset: 0x17C70, size: 0x8, addend: 0x0, symName: __ZNSt3__116allocator_traitsINS_9allocatorINS_11__tree_nodeINS_12__value_typeINS_12basic_stringIcNS_11char_traitsIcEENS1_IcEEEEmEEPvEEEEE8allocateB8ne180100ERSC_m, symObjAddr: 0x5E68, symBinAddr: 0x100009C60, symSize: 0x2C }
  - { offset: 0x17CA3, size: 0x8, addend: 0x0, symName: __ZNSt3__122__tree_node_destructorINS_9allocatorINS_11__tree_nodeINS_12__value_typeINS_12basic_stringIcNS_11char_traitsIcEENS1_IcEEEEmEEPvEEEEEC1B8ne180100ERSC_b, symObjAddr: 0x5E94, symBinAddr: 0x100009C8C, symSize: 0x48 }
  - { offset: 0x17CF1, size: 0x8, addend: 0x0, symName: __ZNSt3__110unique_ptrINS_11__tree_nodeINS_12__value_typeINS_12basic_stringIcNS_11char_traitsIcEENS_9allocatorIcEEEEmEEPvEENS_22__tree_node_destructorINS6_ISB_EEEEEC1B8ne180100ILb1EvEEPSB_NS_16__dependent_typeINS_27__unique_ptr_deleter_sfinaeISE_EEXT_EE20__good_rval_ref_typeE, symObjAddr: 0x5EDC, symBinAddr: 0x100009CD4, symSize: 0x3C }
  - { offset: 0x17D42, size: 0x8, addend: 0x0, symName: __ZNSt3__116allocator_traitsINS_9allocatorINS_11__tree_nodeINS_12__value_typeINS_12basic_stringIcNS_11char_traitsIcEENS1_IcEEEEmEEPvEEEEE9constructB8ne180100INS_4pairIKS8_mEEJRKNS_21piecewise_construct_tENS_5tupleIJRSG_EEENSL_IJEEEEvEEvRSC_PT_DpOT0_, symObjAddr: 0x5F18, symBinAddr: 0x100009D10, symSize: 0x44 }
  - { offset: 0x17DC1, size: 0x8, addend: 0x0, symName: __ZNKSt3__110unique_ptrINS_11__tree_nodeINS_12__value_typeINS_12basic_stringIcNS_11char_traitsIcEENS_9allocatorIcEEEEmEEPvEENS_22__tree_node_destructorINS6_ISB_EEEEEptB8ne180100Ev, symObjAddr: 0x5F5C, symBinAddr: 0x100009D54, symSize: 0x28 }
  - { offset: 0x17DE7, size: 0x8, addend: 0x0, symName: __ZNSt3__110unique_ptrINS_11__tree_nodeINS_12__value_typeINS_12basic_stringIcNS_11char_traitsIcEENS_9allocatorIcEEEEmEEPvEENS_22__tree_node_destructorINS6_ISB_EEEEE11get_deleterB8ne180100Ev, symObjAddr: 0x5F84, symBinAddr: 0x100009D7C, symSize: 0x24 }
  - { offset: 0x17E0D, size: 0x8, addend: 0x0, symName: __ZNSt3__19allocatorINS_11__tree_nodeINS_12__value_typeINS_12basic_stringIcNS_11char_traitsIcEENS0_IcEEEEmEEPvEEE8allocateB8ne180100Em, symObjAddr: 0x5FA8, symBinAddr: 0x100009DA0, symSize: 0x58 }
  - { offset: 0x17E4B, size: 0x8, addend: 0x0, symName: __ZNSt3__116allocator_traitsINS_9allocatorINS_11__tree_nodeINS_12__value_typeINS_12basic_stringIcNS_11char_traitsIcEENS1_IcEEEEmEEPvEEEEE8max_sizeB8ne180100ISC_vEEmRKSC_, symObjAddr: 0x6000, symBinAddr: 0x100009DF8, symSize: 0x24 }
  - { offset: 0x17E79, size: 0x8, addend: 0x0, symName: __ZNKSt3__19allocatorINS_11__tree_nodeINS_12__value_typeINS_12basic_stringIcNS_11char_traitsIcEENS0_IcEEEEmEEPvEEE8max_sizeB8ne180100Ev, symObjAddr: 0x6024, symBinAddr: 0x100009E1C, symSize: 0x14 }
  - { offset: 0x17E9F, size: 0x8, addend: 0x0, symName: __ZNSt3__122__tree_node_destructorINS_9allocatorINS_11__tree_nodeINS_12__value_typeINS_12basic_stringIcNS_11char_traitsIcEENS1_IcEEEEmEEPvEEEEEC2B8ne180100ERSC_b, symObjAddr: 0x6038, symBinAddr: 0x100009E30, symSize: 0x38 }
  - { offset: 0x17EE7, size: 0x8, addend: 0x0, symName: __ZNSt3__110unique_ptrINS_11__tree_nodeINS_12__value_typeINS_12basic_stringIcNS_11char_traitsIcEENS_9allocatorIcEEEEmEEPvEENS_22__tree_node_destructorINS6_ISB_EEEEEC2B8ne180100ILb1EvEEPSB_NS_16__dependent_typeINS_27__unique_ptr_deleter_sfinaeISE_EEXT_EE20__good_rval_ref_typeE, symObjAddr: 0x6070, symBinAddr: 0x100009E68, symSize: 0x48 }
  - { offset: 0x17F38, size: 0x8, addend: 0x0, symName: __ZNSt3__117__compressed_pairIPNS_11__tree_nodeINS_12__value_typeINS_12basic_stringIcNS_11char_traitsIcEENS_9allocatorIcEEEEmEEPvEENS_22__tree_node_destructorINS6_ISB_EEEEEC1B8ne180100IRSC_SF_EEOT_OT0_, symObjAddr: 0x60B8, symBinAddr: 0x100009EB0, symSize: 0x3C }
  - { offset: 0x17F90, size: 0x8, addend: 0x0, symName: __ZNSt3__117__compressed_pairIPNS_11__tree_nodeINS_12__value_typeINS_12basic_stringIcNS_11char_traitsIcEENS_9allocatorIcEEEEmEEPvEENS_22__tree_node_destructorINS6_ISB_EEEEEC2B8ne180100IRSC_SF_EEOT_OT0_, symObjAddr: 0x60F4, symBinAddr: 0x100009EEC, symSize: 0x48 }
  - { offset: 0x17FE8, size: 0x8, addend: 0x0, symName: __ZNSt3__122__compressed_pair_elemIPNS_11__tree_nodeINS_12__value_typeINS_12basic_stringIcNS_11char_traitsIcEENS_9allocatorIcEEEEmEEPvEELi0ELb0EEC2B8ne180100IRSC_vEEOT_, symObjAddr: 0x613C, symBinAddr: 0x100009F34, symSize: 0x24 }
  - { offset: 0x1802A, size: 0x8, addend: 0x0, symName: __ZNSt3__122__compressed_pair_elemINS_22__tree_node_destructorINS_9allocatorINS_11__tree_nodeINS_12__value_typeINS_12basic_stringIcNS_11char_traitsIcEENS2_IcEEEEmEEPvEEEEEELi1ELb0EEC2B8ne180100ISE_vEEOT_, symObjAddr: 0x6160, symBinAddr: 0x100009F58, symSize: 0x24 }
  - { offset: 0x1806C, size: 0x8, addend: 0x0, symName: __ZNSt3__19allocatorINS_11__tree_nodeINS_12__value_typeINS_12basic_stringIcNS_11char_traitsIcEENS0_IcEEEEmEEPvEEE9constructB8ne180100INS_4pairIKS7_mEEJRKNS_21piecewise_construct_tENS_5tupleIJRSE_EEENSJ_IJEEEEEEvPT_DpOT0_, symObjAddr: 0x6184, symBinAddr: 0x100009F7C, symSize: 0x44 }
  - { offset: 0x180E8, size: 0x8, addend: 0x0, symName: __ZNSt3__14pairIKNS_12basic_stringIcNS_11char_traitsIcEENS_9allocatorIcEEEEmEC1B8ne180100IJRS7_EJEEENS_21piecewise_construct_tENS_5tupleIJDpT_EEENSC_IJDpT0_EEE, symObjAddr: 0x61C8, symBinAddr: 0x100009FC0, symSize: 0x3C }
  - { offset: 0x1814F, size: 0x8, addend: 0x0, symName: __ZNSt3__14pairIKNS_12basic_stringIcNS_11char_traitsIcEENS_9allocatorIcEEEEmEC1B8ne180100IJRS7_EJEJLm0EEJEEENS_21piecewise_construct_tERNS_5tupleIJDpT_EEERNSC_IJDpT0_EEENS_15__tuple_indicesIJXspT1_EEEENSL_IJXspT2_EEEE, symObjAddr: 0x6204, symBinAddr: 0x100009FFC, symSize: 0x3C }
  - { offset: 0x181DF, size: 0x8, addend: 0x0, symName: __ZNSt3__14pairIKNS_12basic_stringIcNS_11char_traitsIcEENS_9allocatorIcEEEEmEC2B8ne180100IJRS7_EJEJLm0EEJEEENS_21piecewise_construct_tERNS_5tupleIJDpT_EEERNSC_IJDpT0_EEENS_15__tuple_indicesIJXspT1_EEEENSL_IJXspT2_EEEE, symObjAddr: 0x6240, symBinAddr: 0x10000A038, symSize: 0x48 }
  - { offset: 0x1826F, size: 0x8, addend: 0x0, symName: __ZNSt3__112__tuple_leafILm0ERKNS_12basic_stringIcNS_11char_traitsIcEENS_9allocatorIcEEEELb0EE3getB8ne180100Ev, symObjAddr: 0x62AC, symBinAddr: 0x10000A0A4, symSize: 0x18 }
  - { offset: 0x18295, size: 0x8, addend: 0x0, symName: __ZNKSt3__117__compressed_pairIPNS_11__tree_nodeINS_12__value_typeINS_12basic_stringIcNS_11char_traitsIcEENS_9allocatorIcEEEEmEEPvEENS_22__tree_node_destructorINS6_ISB_EEEEE5firstB8ne180100Ev, symObjAddr: 0x62C4, symBinAddr: 0x10000A0BC, symSize: 0x24 }
  - { offset: 0x182BB, size: 0x8, addend: 0x0, symName: __ZNKSt3__122__compressed_pair_elemIPNS_11__tree_nodeINS_12__value_typeINS_12basic_stringIcNS_11char_traitsIcEENS_9allocatorIcEEEEmEEPvEELi0ELb0EE5__getB8ne180100Ev, symObjAddr: 0x62E8, symBinAddr: 0x10000A0E0, symSize: 0x14 }
  - { offset: 0x182E1, size: 0x8, addend: 0x0, symName: __ZNSt3__117__compressed_pairIPNS_11__tree_nodeINS_12__value_typeINS_12basic_stringIcNS_11char_traitsIcEENS_9allocatorIcEEEEmEEPvEENS_22__tree_node_destructorINS6_ISB_EEEEE6secondB8ne180100Ev, symObjAddr: 0x62FC, symBinAddr: 0x10000A0F4, symSize: 0x28 }
  - { offset: 0x18307, size: 0x8, addend: 0x0, symName: __ZNSt3__122__compressed_pair_elemINS_22__tree_node_destructorINS_9allocatorINS_11__tree_nodeINS_12__value_typeINS_12basic_stringIcNS_11char_traitsIcEENS2_IcEEEEmEEPvEEEEEELi1ELb0EE5__getB8ne180100Ev, symObjAddr: 0x6324, symBinAddr: 0x10000A11C, symSize: 0x14 }
  - { offset: 0x1832D, size: 0x8, addend: 0x0, symName: __ZNSt3__16__treeINS_12__value_typeINS_12basic_stringIcNS_11char_traitsIcEENS_9allocatorIcEEEEmEENS_19__map_value_compareIS7_S8_NS_4lessIS7_EELb1EEENS5_IS8_EEE4sizeB8ne180100Ev, symObjAddr: 0x6664, symBinAddr: 0x10000A45C, symSize: 0x28 }
  - { offset: 0x18353, size: 0x8, addend: 0x0, symName: __ZNKSt3__116__tree_node_baseIPvE15__parent_unsafeB8ne180100Ev, symObjAddr: 0x668C, symBinAddr: 0x10000A484, symSize: 0x18 }
  - { offset: 0x18379, size: 0x8, addend: 0x0, symName: __ZNSt3__116__tree_node_baseIPvE12__set_parentB8ne180100EPS2_, symObjAddr: 0x6874, symBinAddr: 0x10000A66C, symSize: 0x20 }
  - { offset: 0x183AE, size: 0x8, addend: 0x0, symName: __ZNSt3__117__compressed_pairImNS_19__map_value_compareINS_12basic_stringIcNS_11char_traitsIcEENS_9allocatorIcEEEENS_12__value_typeIS7_mEENS_4lessIS7_EELb1EEEE5firstB8ne180100Ev, symObjAddr: 0x6894, symBinAddr: 0x10000A68C, symSize: 0x24 }
  - { offset: 0x183D4, size: 0x8, addend: 0x0, symName: __ZNSt3__122__compressed_pair_elemImLi0ELb0EE5__getB8ne180100Ev, symObjAddr: 0x68B8, symBinAddr: 0x10000A6B0, symSize: 0x14 }
  - { offset: 0x183FA, size: 0x8, addend: 0x0, symName: __ZNSt3__117__compressed_pairIPNS_11__tree_nodeINS_12__value_typeINS_12basic_stringIcNS_11char_traitsIcEENS_9allocatorIcEEEEmEEPvEENS_22__tree_node_destructorINS6_ISB_EEEEE5firstB8ne180100Ev, symObjAddr: 0x68CC, symBinAddr: 0x10000A6C4, symSize: 0x24 }
  - { offset: 0x18420, size: 0x8, addend: 0x0, symName: __ZNSt3__122__compressed_pair_elemIPNS_11__tree_nodeINS_12__value_typeINS_12basic_stringIcNS_11char_traitsIcEENS_9allocatorIcEEEEmEEPvEELi0ELb0EE5__getB8ne180100Ev, symObjAddr: 0x68F0, symBinAddr: 0x10000A6E8, symSize: 0x14 }
  - { offset: 0x18446, size: 0x8, addend: 0x0, symName: __ZNSt3__110unique_ptrINS_11__tree_nodeINS_12__value_typeINS_12basic_stringIcNS_11char_traitsIcEENS_9allocatorIcEEEEmEEPvEENS_22__tree_node_destructorINS6_ISB_EEEEED2B8ne180100Ev, symObjAddr: 0x6904, symBinAddr: 0x10000A6FC, symSize: 0x30 }
  - { offset: 0x18470, size: 0x8, addend: 0x0, symName: __ZNSt3__110unique_ptrINS_11__tree_nodeINS_12__value_typeINS_12basic_stringIcNS_11char_traitsIcEENS_9allocatorIcEEEEmEEPvEENS_22__tree_node_destructorINS6_ISB_EEEEE5resetB8ne180100EPSB_, symObjAddr: 0x6934, symBinAddr: 0x10000A72C, symSize: 0x78 }
  - { offset: 0x184B4, size: 0x8, addend: 0x0, symName: __ZNSt3__122__tree_node_destructorINS_9allocatorINS_11__tree_nodeINS_12__value_typeINS_12basic_stringIcNS_11char_traitsIcEENS1_IcEEEEmEEPvEEEEEclB8ne180100EPSB_, symObjAddr: 0x69AC, symBinAddr: 0x10000A7A4, symSize: 0x98 }
  - { offset: 0x184E9, size: 0x8, addend: 0x0, symName: __ZNSt3__115__tree_iteratorINS_12__value_typeINS_12basic_stringIcNS_11char_traitsIcEENS_9allocatorIcEEEEmEEPNS_11__tree_nodeIS8_PvEElEC2B8ne180100ESC_, symObjAddr: 0x6A44, symBinAddr: 0x10000A83C, symSize: 0x20 }
  - { offset: 0x18522, size: 0x8, addend: 0x0, symName: __ZNSt3__14pairINS_15__tree_iteratorINS_12__value_typeINS_12basic_stringIcNS_11char_traitsIcEENS_9allocatorIcEEEEmEEPNS_11__tree_nodeIS9_PvEElEEbEC2B8ne180100ISE_RbLi0EEEOT_OT0_, symObjAddr: 0x6A64, symBinAddr: 0x10000A85C, symSize: 0x38 }
  - { offset: 0x18580, size: 0x8, addend: 0x0, symName: __ZNSt3__15tupleIJRKNS_12basic_stringIcNS_11char_traitsIcEENS_9allocatorIcEEEEEEC1B8ne180100INS_4_AndELi0EEES8_, symObjAddr: 0x6A9C, symBinAddr: 0x10000A894, symSize: 0x34 }
  - { offset: 0x185C8, size: 0x8, addend: 0x0, symName: __ZNSt3__15tupleIJRKNS_12basic_stringIcNS_11char_traitsIcEENS_9allocatorIcEEEEEEC2B8ne180100INS_4_AndELi0EEES8_, symObjAddr: 0x6AD0, symBinAddr: 0x10000A8C8, symSize: 0x34 }
  - { offset: 0x18610, size: 0x8, addend: 0x0, symName: __ZNSt3__112__tuple_implINS_15__tuple_indicesIJLm0EEEEJRKNS_12basic_stringIcNS_11char_traitsIcEENS_9allocatorIcEEEEEEC1B8ne180100IJLm0EEJSA_EJEJEJSA_EEENS1_IJXspT_EEEENS_13__tuple_typesIJDpT0_EEENS1_IJXspT1_EEEENSE_IJDpT2_EEEDpOT3_, symObjAddr: 0x6B04, symBinAddr: 0x10000A8FC, symSize: 0x34 }
  - { offset: 0x186A5, size: 0x8, addend: 0x0, symName: __ZNSt3__112__tuple_implINS_15__tuple_indicesIJLm0EEEEJRKNS_12basic_stringIcNS_11char_traitsIcEENS_9allocatorIcEEEEEEC2B8ne180100IJLm0EEJSA_EJEJEJSA_EEENS1_IJXspT_EEEENS_13__tuple_typesIJDpT0_EEENS1_IJXspT1_EEEENSE_IJDpT2_EEEDpOT3_, symObjAddr: 0x6B38, symBinAddr: 0x10000A930, symSize: 0x34 }
  - { offset: 0x1873A, size: 0x8, addend: 0x0, symName: __ZNSt3__112__tuple_leafILm0ERKNS_12basic_stringIcNS_11char_traitsIcEENS_9allocatorIcEEEELb0EEC2B8ne180100IS8_vEEOT_, symObjAddr: 0x6B6C, symBinAddr: 0x10000A964, symSize: 0x20 }
  - { offset: 0x1877D, size: 0x8, addend: 0x0, symName: __ZNSt3__114pointer_traitsIPNS_12__value_typeINS_12basic_stringIcNS_11char_traitsIcEENS_9allocatorIcEEEEmEEE10pointer_toB8ne180100ERS8_, symObjAddr: 0x6B8C, symBinAddr: 0x10000A984, symSize: 0x14 }
  - { offset: 0x187A0, size: 0x8, addend: 0x0, symName: __ZNKSt3__115__tree_iteratorINS_12__value_typeINS_12basic_stringIcNS_11char_traitsIcEENS_9allocatorIcEEEEmEEPNS_11__tree_nodeIS8_PvEElE8__get_npB8ne180100Ev, symObjAddr: 0x6BA0, symBinAddr: 0x10000A998, symSize: 0x18 }
  - { offset: 0x187C6, size: 0x8, addend: 0x0, symName: __ZNSt3__14__fs10filesystem18directory_iteratorC1B8ne180100ERKNS1_4pathE, symObjAddr: 0x6BB8, symBinAddr: 0x10000A9B0, symSize: 0x3C }
  - { offset: 0x187FE, size: 0x8, addend: 0x0, symName: __ZNSt3__14__fs10filesystem18directory_iteratorC1B8ne180100ERKS2_, symObjAddr: 0x6C2C, symBinAddr: 0x10000AA24, symSize: 0x34 }
  - { offset: 0x18832, size: 0x8, addend: 0x0, symName: __ZNSt3__14__fs10filesystem18directory_iteratorD1B8ne180100Ev, symObjAddr: 0x6C60, symBinAddr: 0x10000AA58, symSize: 0x2C }
  - { offset: 0x1885C, size: 0x8, addend: 0x0, symName: __ZNKSt3__14__fs10filesystem18directory_iteratordeB8ne180100Ev, symObjAddr: 0x6CF4, symBinAddr: 0x10000AAEC, symSize: 0x24 }
  - { offset: 0x18882, size: 0x8, addend: 0x0, symName: __ZNSt3__14__fs10filesystem18directory_iteratorppB8ne180100Ev, symObjAddr: 0x6D18, symBinAddr: 0x10000AB10, symSize: 0x28 }
  - { offset: 0x188A8, size: 0x8, addend: 0x0, symName: __ZNSt3__14__fs10filesystem18directory_iteratorC1B8ne180100EOS2_, symObjAddr: 0x6D40, symBinAddr: 0x10000AB38, symSize: 0x34 }
  - { offset: 0x188DC, size: 0x8, addend: 0x0, symName: __ZNSt3__14__fs10filesystem18directory_iteratorC2B8ne180100EOS2_, symObjAddr: 0x6D74, symBinAddr: 0x10000AB6C, symSize: 0x34 }
  - { offset: 0x18910, size: 0x8, addend: 0x0, symName: __ZNSt3__110shared_ptrINS_4__fs10filesystem12__dir_streamEEC1B8ne180100EOS4_, symObjAddr: 0x6DA8, symBinAddr: 0x10000ABA0, symSize: 0x34 }
  - { offset: 0x18949, size: 0x8, addend: 0x0, symName: __ZNSt3__110shared_ptrINS_4__fs10filesystem12__dir_streamEEC2B8ne180100EOS4_, symObjAddr: 0x6DDC, symBinAddr: 0x10000ABD4, symSize: 0x40 }
  - { offset: 0x18982, size: 0x8, addend: 0x0, symName: __ZNSt3__14__fs10filesystem18directory_iteratorC2B8ne180100ERKS2_, symObjAddr: 0x6E1C, symBinAddr: 0x10000AC14, symSize: 0x34 }
  - { offset: 0x189B6, size: 0x8, addend: 0x0, symName: __ZNSt3__110shared_ptrINS_4__fs10filesystem12__dir_streamEEC1B8ne180100ERKS4_, symObjAddr: 0x6E50, symBinAddr: 0x10000AC48, symSize: 0x34 }
  - { offset: 0x189EF, size: 0x8, addend: 0x0, symName: __ZNSt3__110shared_ptrINS_4__fs10filesystem12__dir_streamEEC2B8ne180100ERKS4_, symObjAddr: 0x6E84, symBinAddr: 0x10000AC7C, symSize: 0x70 }
  - { offset: 0x18A28, size: 0x8, addend: 0x0, symName: __ZNSt3__14__fs10filesystem18directory_iteratorD2B8ne180100Ev, symObjAddr: 0x6EF4, symBinAddr: 0x10000ACEC, symSize: 0x2C }
  - { offset: 0x18A52, size: 0x8, addend: 0x0, symName: __ZNSt3__110shared_ptrINS_4__fs10filesystem12__dir_streamEED1B8ne180100Ev, symObjAddr: 0x6F20, symBinAddr: 0x10000AD18, symSize: 0x2C }
  - { offset: 0x18A7C, size: 0x8, addend: 0x0, symName: __ZNSt3__110shared_ptrINS_4__fs10filesystem12__dir_streamEED2B8ne180100Ev, symObjAddr: 0x6F4C, symBinAddr: 0x10000AD44, symSize: 0x54 }
  - { offset: 0x18AA6, size: 0x8, addend: 0x0, symName: __ZNSt3__14__fs10filesystem18directory_iteratorC1B8ne180100Ev, symObjAddr: 0x6FA0, symBinAddr: 0x10000AD98, symSize: 0x2C }
  - { offset: 0x18AD0, size: 0x8, addend: 0x0, symName: __ZNSt3__14__fs10filesystem18directory_iteratorC2B8ne180100Ev, symObjAddr: 0x6FCC, symBinAddr: 0x10000ADC4, symSize: 0x2C }
  - { offset: 0x18AFA, size: 0x8, addend: 0x0, symName: __ZNSt3__110shared_ptrINS_4__fs10filesystem12__dir_streamEEC1B8ne180100Ev, symObjAddr: 0x6FF8, symBinAddr: 0x10000ADF0, symSize: 0x2C }
  - { offset: 0x18B24, size: 0x8, addend: 0x0, symName: __ZNSt3__110shared_ptrINS_4__fs10filesystem12__dir_streamEEC2B8ne180100Ev, symObjAddr: 0x7024, symBinAddr: 0x10000AE1C, symSize: 0x1C }
  - { offset: 0x18B4E, size: 0x8, addend: 0x0, symName: __ZNKSt3__110shared_ptrINS_4__fs10filesystem12__dir_streamEE3getB8ne180100Ev, symObjAddr: 0x70B8, symBinAddr: 0x10000AEB0, symSize: 0x18 }
  - { offset: 0x18B74, size: 0x8, addend: 0x0, symName: __ZNKSt3__14__fs10filesystem4path6nativeB8ne180100Ev, symObjAddr: 0x7180, symBinAddr: 0x10000AF78, symSize: 0x14 }
  - { offset: 0x18B9A, size: 0x8, addend: 0x0, symName: __ZNSt3__111char_traitsIcE2eqEcc, symObjAddr: 0x72DC, symBinAddr: 0x10000B0D4, symSize: 0x28 }
  - { offset: 0x18BD0, size: 0x8, addend: 0x0, symName: __ZNSt3__121__quoted_output_proxyIcNS_11char_traitsIcEEEC1B8ne180100EPKcS5_cc, symObjAddr: 0x7304, symBinAddr: 0x10000B0FC, symSize: 0x4C }
  - { offset: 0x18C36, size: 0x8, addend: 0x0, symName: __ZNSt3__121__quoted_output_proxyIcNS_11char_traitsIcEEEC2B8ne180100EPKcS5_cc, symObjAddr: 0x7350, symBinAddr: 0x10000B148, symSize: 0x44 }
  - { offset: 0x18C9C, size: 0x8, addend: 0x0, symName: __ZNSt3__16__treeINS_12__value_typeINS_12basic_stringIcNS_11char_traitsIcEENS_9allocatorIcEEEEmEENS_19__map_value_compareIS7_S8_NS_4lessIS7_EELb1EEENS5_IS8_EEE5beginB8ne180100Ev, symObjAddr: 0x7394, symBinAddr: 0x10000B18C, symSize: 0x34 }
  - { offset: 0x18CC2, size: 0x8, addend: 0x0, symName: __ZNSt3__114__map_iteratorINS_15__tree_iteratorINS_12__value_typeINS_12basic_stringIcNS_11char_traitsIcEENS_9allocatorIcEEEEmEEPNS_11__tree_nodeIS9_PvEElEEEC1B8ne180100ESE_, symObjAddr: 0x73C8, symBinAddr: 0x10000B1C0, symSize: 0x34 }
  - { offset: 0x18CFB, size: 0x8, addend: 0x0, symName: __ZNSt3__115__tree_iteratorINS_12__value_typeINS_12basic_stringIcNS_11char_traitsIcEENS_9allocatorIcEEEEmEEPNS_11__tree_nodeIS8_PvEElEC1B8ne180100EPNS_15__tree_end_nodeIPNS_16__tree_node_baseISA_EEEE, symObjAddr: 0x73FC, symBinAddr: 0x10000B1F4, symSize: 0x34 }
  - { offset: 0x18D34, size: 0x8, addend: 0x0, symName: __ZNSt3__115__tree_iteratorINS_12__value_typeINS_12basic_stringIcNS_11char_traitsIcEENS_9allocatorIcEEEEmEEPNS_11__tree_nodeIS8_PvEElEC2B8ne180100EPNS_15__tree_end_nodeIPNS_16__tree_node_baseISA_EEEE, symObjAddr: 0x7430, symBinAddr: 0x10000B228, symSize: 0x20 }
  - { offset: 0x18D6D, size: 0x8, addend: 0x0, symName: __ZNSt3__114__map_iteratorINS_15__tree_iteratorINS_12__value_typeINS_12basic_stringIcNS_11char_traitsIcEENS_9allocatorIcEEEEmEEPNS_11__tree_nodeIS9_PvEElEEEC2B8ne180100ESE_, symObjAddr: 0x7450, symBinAddr: 0x10000B248, symSize: 0x20 }
  - { offset: 0x18DA6, size: 0x8, addend: 0x0, symName: __ZNSt3__16__treeINS_12__value_typeINS_12basic_stringIcNS_11char_traitsIcEENS_9allocatorIcEEEEmEENS_19__map_value_compareIS7_S8_NS_4lessIS7_EELb1EEENS5_IS8_EEE3endB8ne180100Ev, symObjAddr: 0x7470, symBinAddr: 0x10000B268, symSize: 0x34 }
  - { offset: 0x18DCC, size: 0x8, addend: 0x0, symName: __ZNSt3__115__tree_iteratorINS_12__value_typeINS_12basic_stringIcNS_11char_traitsIcEENS_9allocatorIcEEEEmEEPNS_11__tree_nodeIS8_PvEElEppB8ne180100Ev, symObjAddr: 0x7508, symBinAddr: 0x10000B300, symSize: 0x38 }
...
